---
triple:          'arm64-apple-darwin'
binary-path:     '/Users/tippach/Desktop/my/programming/c++learning/mines/main'
relocations:
  - { offsetInCU: 0x7B13, offset: 0x7B13, size: 0x8, addend: 0x0, symName: __ZNSt3__124__put_character_sequenceB7v160006IcNS_11char_traitsIcEEEERNS_13basic_ostreamIT_T0_EES7_PKS4_m, symObjAddr: 0x5F68, symBinAddr: 0x100006800, symSize: 0x1EC }
  - { offsetInCU: 0x9976, offset: 0x9976, size: 0x8, addend: 0x0, symName: __ZNSt3__1lsB7v160006INS_11char_traitsIcEEEERNS_13basic_ostreamIcT_EES6_PKc, symObjAddr: 0x170, symBinAddr: 0x100000A08, symSize: 0x48 }
  - { offsetInCU: 0x99BC, offset: 0x99BC, size: 0x8, addend: 0x0, symName: __ZNSt3__14endlB7v160006IcNS_11char_traitsIcEEEERNS_13basic_ostreamIT_T0_EES7_, symObjAddr: 0x228, symBinAddr: 0x100000AC0, symSize: 0x58 }
  - { offsetInCU: 0x99FC, offset: 0x99FC, size: 0x8, addend: 0x0, symName: __ZNSt3__122__make_exception_guardB7v160006INS_6vectorIN11Minesweeper4CellENS_9allocatorIS3_EEE16__destroy_vectorEEENS_28__exception_guard_exceptionsIT_EES9_, symObjAddr: 0xD9C, symBinAddr: 0x100001634, symSize: 0x40 }
  - { offsetInCU: 0x9A31, offset: 0x9A31, size: 0x8, addend: 0x0, symName: __ZNSt3__119__debug_db_insert_cB7v160006INS_6vectorIN11Minesweeper4CellENS_9allocatorIS3_EEEEEEvPT_, symObjAddr: 0xE10, symBinAddr: 0x1000016A8, symSize: 0x10 }
  - { offsetInCU: 0x9A62, offset: 0x9A62, size: 0x8, addend: 0x0, symName: __ZNSt3__119__allocate_at_leastB7v160006INS_9allocatorIN11Minesweeper4CellEEEEENS_19__allocation_resultINS_16allocator_traitsIT_E7pointerEEERS7_m, symObjAddr: 0x11A0, symBinAddr: 0x100001A38, symSize: 0x40 }
  - { offsetInCU: 0x9AA5, offset: 0x9AA5, size: 0x8, addend: 0x0, symName: __ZNSt3__13minB7v160006ImEERKT_S3_S3_, symObjAddr: 0x12DC, symBinAddr: 0x100001B74, symSize: 0x2C }
  - { offsetInCU: 0x9CE9, offset: 0x9CE9, size: 0x8, addend: 0x0, symName: __ZNSt3__13minB7v160006ImNS_6__lessImmEEEERKT_S5_S5_T0_, symObjAddr: 0x1374, symBinAddr: 0x100001C0C, symSize: 0x54 }
  - { offsetInCU: 0x9D7E, offset: 0x9D7E, size: 0x8, addend: 0x0, symName: __ZNSt3__120__throw_length_errorB7v160006EPKc, symObjAddr: 0x1450, symBinAddr: 0x100001CE8, symSize: 0x64 }
  - { offsetInCU: 0x9DA6, offset: 0x9DA6, size: 0x8, addend: 0x0, symName: __ZNSt3__117__libcpp_allocateB7v160006Emm, symObjAddr: 0x15C0, symBinAddr: 0x100001E58, symSize: 0x28 }
  - { offsetInCU: 0x9DE3, offset: 0x9DE3, size: 0x8, addend: 0x0, symName: __ZNSt3__121__libcpp_operator_newB7v160006IJmEEEPvDpT_, symObjAddr: 0x15E8, symBinAddr: 0x100001E80, symSize: 0x24 }
  - { offsetInCU: 0x9E1C, offset: 0x9E1C, size: 0x8, addend: 0x0, symName: __ZNSt3__112__to_addressB7v160006IN11Minesweeper4CellEEEPT_S4_, symObjAddr: 0x1704, symBinAddr: 0x100001F9C, symSize: 0x14 }
  - { offsetInCU: 0x9E51, offset: 0x9E51, size: 0x8, addend: 0x0, symName: __ZNSt3__118__debug_db_erase_cB7v160006INS_6vectorIN11Minesweeper4CellENS_9allocatorIS3_EEEEEEvPT_, symObjAddr: 0x1A44, symBinAddr: 0x1000022DC, symSize: 0x10 }
  - { offsetInCU: 0x9E82, offset: 0x9E82, size: 0x8, addend: 0x0, symName: __ZNSt3__119__libcpp_deallocateB7v160006EPvmm, symObjAddr: 0x1BE4, symBinAddr: 0x10000247C, symSize: 0x30 }
  - { offsetInCU: 0x9ECA, offset: 0x9ECA, size: 0x8, addend: 0x0, symName: __ZNSt3__127__do_deallocate_handle_sizeB7v160006IJEEEvPvmDpT_, symObjAddr: 0x1C14, symBinAddr: 0x1000024AC, symSize: 0x28 }
  - { offsetInCU: 0x9F08, offset: 0x9F08, size: 0x8, addend: 0x0, symName: __ZNSt3__124__libcpp_operator_deleteB7v160006IJPvEEEvDpT_, symObjAddr: 0x1C3C, symBinAddr: 0x1000024D4, symSize: 0x24 }
  - { offsetInCU: 0x9F3D, offset: 0x9F3D, size: 0x8, addend: 0x0, symName: __ZNSt3__122__make_exception_guardB7v160006INS_6vectorINS1_IN11Minesweeper4CellENS_9allocatorIS3_EEEENS4_IS6_EEE16__destroy_vectorEEENS_28__exception_guard_exceptionsIT_EESB_, symObjAddr: 0x1D84, symBinAddr: 0x10000261C, symSize: 0x40 }
  - { offsetInCU: 0x9F72, offset: 0x9F72, size: 0x8, addend: 0x0, symName: __ZNSt3__119__debug_db_insert_cB7v160006INS_6vectorINS1_IN11Minesweeper4CellENS_9allocatorIS3_EEEENS4_IS6_EEEEEEvPT_, symObjAddr: 0x1DF8, symBinAddr: 0x100002690, symSize: 0x10 }
  - { offsetInCU: 0x9FA3, offset: 0x9FA3, size: 0x8, addend: 0x0, symName: __ZNSt3__119__allocate_at_leastB7v160006INS_9allocatorINS_6vectorIN11Minesweeper4CellENS1_IS4_EEEEEEEENS_19__allocation_resultINS_16allocator_traitsIT_E7pointerEEERSA_m, symObjAddr: 0x2190, symBinAddr: 0x100002A28, symSize: 0x40 }
  - { offsetInCU: 0x9FE6, offset: 0x9FE6, size: 0x8, addend: 0x0, symName: __ZNSt3__112__to_addressB7v160006INS_6vectorIN11Minesweeper4CellENS_9allocatorIS3_EEEEEEPT_S8_, symObjAddr: 0x24D8, symBinAddr: 0x100002D70, symSize: 0x14 }
  - { offsetInCU: 0xA01B, offset: 0xA01B, size: 0x8, addend: 0x0, symName: __ZNSt3__130__uninitialized_allocator_copyB7v160006INS_9allocatorIN11Minesweeper4CellEEEPS3_S5_S5_EET2_RT_T0_T1_S6_, symObjAddr: 0x28DC, symBinAddr: 0x100003174, symSize: 0xF4 }
  - { offsetInCU: 0xA0B9, offset: 0xA0B9, size: 0x8, addend: 0x0, symName: __ZNSt3__122__make_exception_guardB7v160006INS_29_AllocatorDestroyRangeReverseINS_9allocatorIN11Minesweeper4CellEEEPS4_EEEENS_28__exception_guard_exceptionsIT_EES9_, symObjAddr: 0x29D0, symBinAddr: 0x100003268, symSize: 0x4C }
  - { offsetInCU: 0xA0EF, offset: 0xA0EF, size: 0x8, addend: 0x0, symName: __ZNSt3__119__allocator_destroyB7v160006INS_9allocatorIN11Minesweeper4CellEEENS_16reverse_iteratorIPS3_EES7_EEvRT_T0_T1_, symObjAddr: 0x2C58, symBinAddr: 0x1000034F0, symSize: 0x70 }
  - { offsetInCU: 0xA152, offset: 0xA152, size: 0x8, addend: 0x0, symName: __ZNSt3__1neB7v160006IPN11Minesweeper4CellES3_EEbRKNS_16reverse_iteratorIT_EERKNS4_IT0_EE, symObjAddr: 0x2CFC, symBinAddr: 0x100003594, symSize: 0x48 }
  - { offsetInCU: 0xA19E, offset: 0xA19E, size: 0x8, addend: 0x0, symName: __ZNSt3__112__to_addressB7v160006INS_16reverse_iteratorIPN11Minesweeper4CellEEEvEENS_5decayIDTclsr19__to_address_helperIT_EE6__callclsr3stdE7declvalIRKS7_EEEEE4typeES9_, symObjAddr: 0x2D44, symBinAddr: 0x1000035DC, symSize: 0x24 }
  - { offsetInCU: 0xA1FD, offset: 0xA1FD, size: 0x8, addend: 0x0, symName: __ZNSt3__118__debug_db_erase_cB7v160006INS_6vectorINS1_IN11Minesweeper4CellENS_9allocatorIS3_EEEENS4_IS6_EEEEEEvPT_, symObjAddr: 0x302C, symBinAddr: 0x1000038C4, symSize: 0x10 }
  - { offsetInCU: 0xA22E, offset: 0xA22E, size: 0x8, addend: 0x0, symName: __ZNSt3__122__make_exception_guardB7v160006INS_6vectorIiNS_9allocatorIiEEE16__destroy_vectorEEENS_28__exception_guard_exceptionsIT_EES7_, symObjAddr: 0x334C, symBinAddr: 0x100003BE4, symSize: 0x40 }
  - { offsetInCU: 0xA263, offset: 0xA263, size: 0x8, addend: 0x0, symName: __ZNSt3__119__debug_db_insert_cB7v160006INS_6vectorIiNS_9allocatorIiEEEEEEvPT_, symObjAddr: 0x33C0, symBinAddr: 0x100003C58, symSize: 0x10 }
  - { offsetInCU: 0xA294, offset: 0xA294, size: 0x8, addend: 0x0, symName: __ZNSt3__119__allocate_at_leastB7v160006INS_9allocatorIiEEEENS_19__allocation_resultINS_16allocator_traitsIT_E7pointerEEERS5_m, symObjAddr: 0x3750, symBinAddr: 0x100003FE8, symSize: 0x40 }
  - { offsetInCU: 0xA2D7, offset: 0xA2D7, size: 0x8, addend: 0x0, symName: __ZNSt3__112__to_addressB7v160006IiEEPT_S2_, symObjAddr: 0x3A74, symBinAddr: 0x10000430C, symSize: 0x14 }
  - { offsetInCU: 0xA30C, offset: 0xA30C, size: 0x8, addend: 0x0, symName: __ZNSt3__118__debug_db_erase_cB7v160006INS_6vectorIiNS_9allocatorIiEEEEEEvPT_, symObjAddr: 0x3DB4, symBinAddr: 0x10000464C, symSize: 0x10 }
  - { offsetInCU: 0xA33D, offset: 0xA33D, size: 0x8, addend: 0x0, symName: __ZNSt3__122__make_exception_guardB7v160006INS_6vectorINS1_IiNS_9allocatorIiEEEENS2_IS4_EEE16__destroy_vectorEEENS_28__exception_guard_exceptionsIT_EES9_, symObjAddr: 0x4078, symBinAddr: 0x100004910, symSize: 0x40 }
  - { offsetInCU: 0xA372, offset: 0xA372, size: 0x8, addend: 0x0, symName: __ZNSt3__119__debug_db_insert_cB7v160006INS_6vectorINS1_IiNS_9allocatorIiEEEENS2_IS4_EEEEEEvPT_, symObjAddr: 0x40EC, symBinAddr: 0x100004984, symSize: 0x10 }
  - { offsetInCU: 0xA3A3, offset: 0xA3A3, size: 0x8, addend: 0x0, symName: __ZNSt3__119__allocate_at_leastB7v160006INS_9allocatorINS_6vectorIiNS1_IiEEEEEEEENS_19__allocation_resultINS_16allocator_traitsIT_E7pointerEEERS8_m, symObjAddr: 0x4484, symBinAddr: 0x100004D1C, symSize: 0x40 }
  - { offsetInCU: 0xA3E6, offset: 0xA3E6, size: 0x8, addend: 0x0, symName: __ZNSt3__112__to_addressB7v160006INS_6vectorIiNS_9allocatorIiEEEEEEPT_S6_, symObjAddr: 0x47CC, symBinAddr: 0x100005064, symSize: 0x14 }
  - { offsetInCU: 0xA41B, offset: 0xA41B, size: 0x8, addend: 0x0, symName: __ZNSt3__130__uninitialized_allocator_copyB7v160006INS_9allocatorIiEEPiS3_S3_EET2_RT_T0_T1_S4_, symObjAddr: 0x4BD0, symBinAddr: 0x100005468, symSize: 0xF4 }
  - { offsetInCU: 0xA4B9, offset: 0xA4B9, size: 0x8, addend: 0x0, symName: __ZNSt3__122__make_exception_guardB7v160006INS_29_AllocatorDestroyRangeReverseINS_9allocatorIiEEPiEEEENS_28__exception_guard_exceptionsIT_EES7_, symObjAddr: 0x4CC4, symBinAddr: 0x10000555C, symSize: 0x4C }
  - { offsetInCU: 0xA4EF, offset: 0xA4EF, size: 0x8, addend: 0x0, symName: __ZNSt3__119__allocator_destroyB7v160006INS_9allocatorIiEENS_16reverse_iteratorIPiEES5_EEvRT_T0_T1_, symObjAddr: 0x4F4C, symBinAddr: 0x1000057E4, symSize: 0x70 }
  - { offsetInCU: 0xA552, offset: 0xA552, size: 0x8, addend: 0x0, symName: __ZNSt3__1neB7v160006IPiS1_EEbRKNS_16reverse_iteratorIT_EERKNS2_IT0_EE, symObjAddr: 0x4FF0, symBinAddr: 0x100005888, symSize: 0x48 }
  - { offsetInCU: 0xA59E, offset: 0xA59E, size: 0x8, addend: 0x0, symName: __ZNSt3__112__to_addressB7v160006INS_16reverse_iteratorIPiEEvEENS_5decayIDTclsr19__to_address_helperIT_EE6__callclsr3stdE7declvalIRKS5_EEEEE4typeES7_, symObjAddr: 0x5038, symBinAddr: 0x1000058D0, symSize: 0x24 }
  - { offsetInCU: 0xA5FD, offset: 0xA5FD, size: 0x8, addend: 0x0, symName: __ZNSt3__118__debug_db_erase_cB7v160006INS_6vectorINS1_IiNS_9allocatorIiEEEENS2_IS4_EEEEEEvPT_, symObjAddr: 0x5320, symBinAddr: 0x100005BB8, symSize: 0x10 }
  - { offsetInCU: 0xA8C2, offset: 0xA8C2, size: 0x8, addend: 0x0, symName: __ZNSt3__119__debug_db_insert_cB7v160006INS_12basic_stringIcNS_11char_traitsIcEENS_9allocatorIcEEEEEEvPT_, symObjAddr: 0x5784, symBinAddr: 0x10000601C, symSize: 0x10 }
  - { offsetInCU: 0xA8F3, offset: 0xA8F3, size: 0x8, addend: 0x0, symName: __ZNSt3__118__constexpr_strlenB7v160006EPKc, symObjAddr: 0x5850, symBinAddr: 0x1000060E8, symSize: 0x24 }
  - { offsetInCU: 0xA943, offset: 0xA943, size: 0x8, addend: 0x0, symName: __ZNSt3__118generate_canonicalB7v160006IdLm53ENS_23mersenne_twister_engineIjLm32ELm624ELm397ELm31ELj2567483615ELm11ELj4294967295ELm7ELj2636928640ELm15ELj4022730752ELm18ELj1812433253EEEEET_RT1_, symObjAddr: 0x5AC4, symBinAddr: 0x10000635C, symSize: 0x114 }
  - { offsetInCU: 0xAA09, offset: 0xAA09, size: 0x8, addend: 0x0, symName: __ZNSt3__116__pad_and_outputB7v160006IcNS_11char_traitsIcEEEENS_19ostreambuf_iteratorIT_T0_EES6_PKS4_S8_S8_RNS_8ios_baseES4_, symObjAddr: 0x6170, symBinAddr: 0x100006A08, symSize: 0x240 }
  - { offsetInCU: 0xAAD8, offset: 0xAAD8, size: 0x8, addend: 0x0, symName: __ZNSt3__112__to_addressB7v160006IKcEEPT_S3_, symObjAddr: 0x65E8, symBinAddr: 0x100006E80, symSize: 0x14 }
  - { offsetInCU: 0xAB40, offset: 0xAB40, size: 0x8, addend: 0x0, symName: __ZNSt3__19use_facetB7v160006INS_5ctypeIcEEEERKT_RKNS_6localeE, symObjAddr: 0x6868, symBinAddr: 0x100007100, symSize: 0x2C }
  - { offsetInCU: 0xB51C, offset: 0xB51C, size: 0x8, addend: 0x0, symName: __ZSt28__throw_bad_array_new_lengthB7v160006v, symObjAddr: 0x158C, symBinAddr: 0x100001E24, symSize: 0x34 }
  - { offsetInCU: 0xDF80, offset: 0xDF80, size: 0x8, addend: 0x0, symName: _main, symObjAddr: 0x0, symBinAddr: 0x100000898, symSize: 0x170 }
  - { offsetInCU: 0xDFFE, offset: 0xDFFE, size: 0x8, addend: 0x0, symName: __ZN11MinesweeperC1Eiid, symObjAddr: 0x1B8, symBinAddr: 0x100000A50, symSize: 0x44 }
  - { offsetInCU: 0xE052, offset: 0xE052, size: 0x8, addend: 0x0, symName: __ZNSt3__113basic_ostreamIcNS_11char_traitsIcEEElsB7v160006EPFRS3_S4_E, symObjAddr: 0x1FC, symBinAddr: 0x100000A94, symSize: 0x2C }
  - { offsetInCU: 0xE086, offset: 0xE086, size: 0x8, addend: 0x0, symName: __ZNK11Minesweeper10printBoardEb, symObjAddr: 0x280, symBinAddr: 0x100000B18, symSize: 0x1E0 }
  - { offsetInCU: 0xE0F2, offset: 0xE0F2, size: 0x8, addend: 0x0, symName: __ZN11Minesweeper8openCellEii, symObjAddr: 0x460, symBinAddr: 0x100000CF8, symSize: 0x194 }
  - { offsetInCU: 0xE16C, offset: 0xE16C, size: 0x8, addend: 0x0, symName: __ZN11MinesweeperD1Ev, symObjAddr: 0x5F4, symBinAddr: 0x100000E8C, symSize: 0x2C }
  - { offsetInCU: 0xE198, offset: 0xE198, size: 0x8, addend: 0x0, symName: __ZN11MinesweeperC2Eiid, symObjAddr: 0x620, symBinAddr: 0x100000EB8, symSize: 0x160 }
  - { offsetInCU: 0xE1EC, offset: 0xE1EC, size: 0x8, addend: 0x0, symName: __ZNSt3__16vectorIN11Minesweeper4CellENS_9allocatorIS2_EEEC1EmRKS2_, symObjAddr: 0x780, symBinAddr: 0x100001018, symSize: 0x3C }
  - { offsetInCU: 0xE236, offset: 0xE236, size: 0x8, addend: 0x0, symName: __ZNSt3__16vectorINS0_IN11Minesweeper4CellENS_9allocatorIS2_EEEENS3_IS5_EEEC1EmRKS5_, symObjAddr: 0x7BC, symBinAddr: 0x100001054, symSize: 0x3C }
  - { offsetInCU: 0xE280, offset: 0xE280, size: 0x8, addend: 0x0, symName: __ZNSt3__16vectorIN11Minesweeper4CellENS_9allocatorIS2_EEED1B7v160006Ev, symObjAddr: 0x7F8, symBinAddr: 0x100001090, symSize: 0x2C }
  - { offsetInCU: 0xE2AA, offset: 0xE2AA, size: 0x8, addend: 0x0, symName: __ZNSt3__16vectorIiNS_9allocatorIiEEEC1EmRKi, symObjAddr: 0x824, symBinAddr: 0x1000010BC, symSize: 0x3C }
  - { offsetInCU: 0xE2F4, offset: 0xE2F4, size: 0x8, addend: 0x0, symName: __ZNSt3__16vectorINS0_IiNS_9allocatorIiEEEENS1_IS3_EEEC1EmRKS3_, symObjAddr: 0x860, symBinAddr: 0x1000010F8, symSize: 0x3C }
  - { offsetInCU: 0xE33E, offset: 0xE33E, size: 0x8, addend: 0x0, symName: __ZNSt3__16vectorIiNS_9allocatorIiEEED1B7v160006Ev, symObjAddr: 0x89C, symBinAddr: 0x100001134, symSize: 0x2C }
  - { offsetInCU: 0xE368, offset: 0xE368, size: 0x8, addend: 0x0, symName: __ZN11Minesweeper13generateMinesEv, symObjAddr: 0x8C8, symBinAddr: 0x100001160, symSize: 0x158 }
  - { offsetInCU: 0xE3E1, offset: 0xE3E1, size: 0x8, addend: 0x0, symName: __ZN11Minesweeper16calculateNumbersEv, symObjAddr: 0xA20, symBinAddr: 0x1000012B8, symSize: 0x200 }
  - { offsetInCU: 0xE4A1, offset: 0xE4A1, size: 0x8, addend: 0x0, symName: __ZNSt3__16vectorINS0_IiNS_9allocatorIiEEEENS1_IS3_EEED1B7v160006Ev, symObjAddr: 0xC20, symBinAddr: 0x1000014B8, symSize: 0x2C }
  - { offsetInCU: 0xE4CB, offset: 0xE4CB, size: 0x8, addend: 0x0, symName: __ZNSt3__16vectorINS0_IN11Minesweeper4CellENS_9allocatorIS2_EEEENS3_IS5_EEED1B7v160006Ev, symObjAddr: 0xC4C, symBinAddr: 0x1000014E4, symSize: 0x2C }
  - { offsetInCU: 0xE4F5, offset: 0xE4F5, size: 0x8, addend: 0x0, symName: __ZNSt3__16vectorIN11Minesweeper4CellENS_9allocatorIS2_EEEC2EmRKS2_, symObjAddr: 0xC78, symBinAddr: 0x100001510, symSize: 0xE8 }
  - { offsetInCU: 0xE55E, offset: 0xE55E, size: 0x8, addend: 0x0, symName: __ZNSt3__117__compressed_pairIPN11Minesweeper4CellENS_9allocatorIS2_EEEC1B7v160006IDnNS_18__default_init_tagEEEOT_OT0_, symObjAddr: 0xD60, symBinAddr: 0x1000015F8, symSize: 0x3C }
  - { offsetInCU: 0xE5B6, offset: 0xE5B6, size: 0x8, addend: 0x0, symName: __ZNSt3__16vectorIN11Minesweeper4CellENS_9allocatorIS2_EEE16__destroy_vectorC1ERS5_, symObjAddr: 0xDDC, symBinAddr: 0x100001674, symSize: 0x34 }
  - { offsetInCU: 0xE5EF, offset: 0xE5EF, size: 0x8, addend: 0x0, symName: __ZNSt3__16vectorIN11Minesweeper4CellENS_9allocatorIS2_EEE11__vallocateB7v160006Em, symObjAddr: 0xE20, symBinAddr: 0x1000016B8, symSize: 0xAC }
  - { offsetInCU: 0xE633, offset: 0xE633, size: 0x8, addend: 0x0, symName: __ZNSt3__16vectorIN11Minesweeper4CellENS_9allocatorIS2_EEE18__construct_at_endEmRKS2_, symObjAddr: 0xECC, symBinAddr: 0x100001764, symSize: 0xD0 }
  - { offsetInCU: 0xE6B4, offset: 0xE6B4, size: 0x8, addend: 0x0, symName: __ZNSt3__128__exception_guard_exceptionsINS_6vectorIN11Minesweeper4CellENS_9allocatorIS3_EEE16__destroy_vectorEE10__completeB7v160006Ev, symObjAddr: 0xF9C, symBinAddr: 0x100001834, symSize: 0x1C }
  - { offsetInCU: 0xE6DA, offset: 0xE6DA, size: 0x8, addend: 0x0, symName: __ZNSt3__128__exception_guard_exceptionsINS_6vectorIN11Minesweeper4CellENS_9allocatorIS3_EEE16__destroy_vectorEED1B7v160006Ev, symObjAddr: 0xFB8, symBinAddr: 0x100001850, symSize: 0x2C }
  - { offsetInCU: 0xE704, offset: 0xE704, size: 0x8, addend: 0x0, symName: __ZNSt3__117__compressed_pairIPN11Minesweeper4CellENS_9allocatorIS2_EEEC2B7v160006IDnNS_18__default_init_tagEEEOT_OT0_, symObjAddr: 0xFE4, symBinAddr: 0x10000187C, symSize: 0x40 }
  - { offsetInCU: 0xE75C, offset: 0xE75C, size: 0x8, addend: 0x0, symName: __ZNSt3__122__compressed_pair_elemIPN11Minesweeper4CellELi0ELb0EEC2B7v160006IDnvEEOT_, symObjAddr: 0x1024, symBinAddr: 0x1000018BC, symSize: 0x1C }
  - { offsetInCU: 0xE79E, offset: 0xE79E, size: 0x8, addend: 0x0, symName: __ZNSt3__122__compressed_pair_elemINS_9allocatorIN11Minesweeper4CellEEELi1ELb1EEC2B7v160006ENS_18__default_init_tagE, symObjAddr: 0x1040, symBinAddr: 0x1000018D8, symSize: 0x2C }
  - { offsetInCU: 0xE7D3, offset: 0xE7D3, size: 0x8, addend: 0x0, symName: __ZNSt3__19allocatorIN11Minesweeper4CellEEC2B7v160006Ev, symObjAddr: 0x106C, symBinAddr: 0x100001904, symSize: 0x2C }
  - { offsetInCU: 0xE7FD, offset: 0xE7FD, size: 0x8, addend: 0x0, symName: __ZNSt3__116__non_trivial_ifILb1ENS_9allocatorIN11Minesweeper4CellEEEEC2B7v160006Ev, symObjAddr: 0x1098, symBinAddr: 0x100001930, symSize: 0x14 }
  - { offsetInCU: 0xE827, offset: 0xE827, size: 0x8, addend: 0x0, symName: __ZNSt3__128__exception_guard_exceptionsINS_6vectorIN11Minesweeper4CellENS_9allocatorIS3_EEE16__destroy_vectorEEC1B7v160006ES7_, symObjAddr: 0x10AC, symBinAddr: 0x100001944, symSize: 0x34 }
  - { offsetInCU: 0xE85F, offset: 0xE85F, size: 0x8, addend: 0x0, symName: __ZNSt3__128__exception_guard_exceptionsINS_6vectorIN11Minesweeper4CellENS_9allocatorIS3_EEE16__destroy_vectorEEC2B7v160006ES7_, symObjAddr: 0x10E0, symBinAddr: 0x100001978, symSize: 0x24 }
  - { offsetInCU: 0xE897, offset: 0xE897, size: 0x8, addend: 0x0, symName: __ZNSt3__16vectorIN11Minesweeper4CellENS_9allocatorIS2_EEE16__destroy_vectorC2ERS5_, symObjAddr: 0x1104, symBinAddr: 0x10000199C, symSize: 0x20 }
  - { offsetInCU: 0xE8D0, offset: 0xE8D0, size: 0x8, addend: 0x0, symName: __ZNKSt3__16vectorIN11Minesweeper4CellENS_9allocatorIS2_EEE8max_sizeEv, symObjAddr: 0x1124, symBinAddr: 0x1000019BC, symSize: 0x60 }
  - { offsetInCU: 0xE8F8, offset: 0xE8F8, size: 0x8, addend: 0x0, symName: __ZNKSt3__16vectorIN11Minesweeper4CellENS_9allocatorIS2_EEE20__throw_length_errorB7v160006Ev, symObjAddr: 0x1184, symBinAddr: 0x100001A1C, symSize: 0x1C }
  - { offsetInCU: 0xE91E, offset: 0xE91E, size: 0x8, addend: 0x0, symName: __ZNSt3__16vectorIN11Minesweeper4CellENS_9allocatorIS2_EEE7__allocB7v160006Ev, symObjAddr: 0x11E0, symBinAddr: 0x100001A78, symSize: 0x28 }
  - { offsetInCU: 0xE944, offset: 0xE944, size: 0x8, addend: 0x0, symName: __ZNSt3__16vectorIN11Minesweeper4CellENS_9allocatorIS2_EEE9__end_capB7v160006Ev, symObjAddr: 0x1208, symBinAddr: 0x100001AA0, symSize: 0x28 }
  - { offsetInCU: 0xE96A, offset: 0xE96A, size: 0x8, addend: 0x0, symName: __ZNKSt3__16vectorIN11Minesweeper4CellENS_9allocatorIS2_EEE14__annotate_newB7v160006Em, symObjAddr: 0x1230, symBinAddr: 0x100001AC8, symSize: 0xAC }
  - { offsetInCU: 0xE9A9, offset: 0xE9A9, size: 0x8, addend: 0x0, symName: __ZNSt3__116allocator_traitsINS_9allocatorIN11Minesweeper4CellEEEE8max_sizeB7v160006IS4_vEEmRKS4_, symObjAddr: 0x1308, symBinAddr: 0x100001BA0, symSize: 0x24 }
  - { offsetInCU: 0xE9D7, offset: 0xE9D7, size: 0x8, addend: 0x0, symName: __ZNKSt3__16vectorIN11Minesweeper4CellENS_9allocatorIS2_EEE7__allocB7v160006Ev, symObjAddr: 0x132C, symBinAddr: 0x100001BC4, symSize: 0x28 }
  - { offsetInCU: 0xE9FD, offset: 0xE9FD, size: 0x8, addend: 0x0, symName: __ZNSt3__114numeric_limitsIlE3maxB7v160006Ev, symObjAddr: 0x1354, symBinAddr: 0x100001BEC, symSize: 0x14 }
  - { offsetInCU: 0xEA25, offset: 0xEA25, size: 0x8, addend: 0x0, symName: __ZNKSt3__16__lessImmEclB7v160006ERKmS3_, symObjAddr: 0x13C8, symBinAddr: 0x100001C60, symSize: 0x34 }
  - { offsetInCU: 0xEA67, offset: 0xEA67, size: 0x8, addend: 0x0, symName: __ZNKSt3__19allocatorIN11Minesweeper4CellEE8max_sizeB7v160006Ev, symObjAddr: 0x13FC, symBinAddr: 0x100001C94, symSize: 0x14 }
  - { offsetInCU: 0xEA8D, offset: 0xEA8D, size: 0x8, addend: 0x0, symName: __ZNKSt3__117__compressed_pairIPN11Minesweeper4CellENS_9allocatorIS2_EEE6secondB7v160006Ev, symObjAddr: 0x1410, symBinAddr: 0x100001CA8, symSize: 0x24 }
  - { offsetInCU: 0xEAB3, offset: 0xEAB3, size: 0x8, addend: 0x0, symName: __ZNKSt3__122__compressed_pair_elemINS_9allocatorIN11Minesweeper4CellEEELi1ELb1EE5__getB7v160006Ev, symObjAddr: 0x1434, symBinAddr: 0x100001CCC, symSize: 0x14 }
  - { offsetInCU: 0xEAD9, offset: 0xEAD9, size: 0x8, addend: 0x0, symName: __ZNSt3__123__libcpp_numeric_limitsIlLb1EE3maxB7v160006Ev, symObjAddr: 0x1448, symBinAddr: 0x100001CE0, symSize: 0x8 }
  - { offsetInCU: 0xEAED, offset: 0xEAED, size: 0x8, addend: 0x0, symName: __ZNSt12length_errorC1B7v160006EPKc, symObjAddr: 0x14B4, symBinAddr: 0x100001D4C, symSize: 0x34 }
  - { offsetInCU: 0xEB25, offset: 0xEB25, size: 0x8, addend: 0x0, symName: __ZNSt12length_errorC2B7v160006EPKc, symObjAddr: 0x14E8, symBinAddr: 0x100001D80, symSize: 0x4C }
  - { offsetInCU: 0xEB5D, offset: 0xEB5D, size: 0x8, addend: 0x0, symName: __ZNSt3__19allocatorIN11Minesweeper4CellEE8allocateB7v160006Em, symObjAddr: 0x1534, symBinAddr: 0x100001DCC, symSize: 0x58 }
  - { offsetInCU: 0xEB91, offset: 0xEB91, size: 0x8, addend: 0x0, symName: __ZNSt3__117__compressed_pairIPN11Minesweeper4CellENS_9allocatorIS2_EEE6secondB7v160006Ev, symObjAddr: 0x160C, symBinAddr: 0x100001EA4, symSize: 0x24 }
  - { offsetInCU: 0xEBB7, offset: 0xEBB7, size: 0x8, addend: 0x0, symName: __ZNSt3__122__compressed_pair_elemINS_9allocatorIN11Minesweeper4CellEEELi1ELb1EE5__getB7v160006Ev, symObjAddr: 0x1630, symBinAddr: 0x100001EC8, symSize: 0x14 }
  - { offsetInCU: 0xEBDD, offset: 0xEBDD, size: 0x8, addend: 0x0, symName: __ZNSt3__117__compressed_pairIPN11Minesweeper4CellENS_9allocatorIS2_EEE5firstB7v160006Ev, symObjAddr: 0x1644, symBinAddr: 0x100001EDC, symSize: 0x24 }
  - { offsetInCU: 0xEC03, offset: 0xEC03, size: 0x8, addend: 0x0, symName: __ZNSt3__122__compressed_pair_elemIPN11Minesweeper4CellELi0ELb0EE5__getB7v160006Ev, symObjAddr: 0x1668, symBinAddr: 0x100001F00, symSize: 0x14 }
  - { offsetInCU: 0xEC29, offset: 0xEC29, size: 0x8, addend: 0x0, symName: __ZNKSt3__16vectorIN11Minesweeper4CellENS_9allocatorIS2_EEE31__annotate_contiguous_containerB7v160006EPKvS7_S7_S7_, symObjAddr: 0x167C, symBinAddr: 0x100001F14, symSize: 0x20 }
  - { offsetInCU: 0xEC7F, offset: 0xEC7F, size: 0x8, addend: 0x0, symName: __ZNKSt3__16vectorIN11Minesweeper4CellENS_9allocatorIS2_EEE4dataB7v160006Ev, symObjAddr: 0x169C, symBinAddr: 0x100001F34, symSize: 0x28 }
  - { offsetInCU: 0xECA5, offset: 0xECA5, size: 0x8, addend: 0x0, symName: __ZNKSt3__16vectorIN11Minesweeper4CellENS_9allocatorIS2_EEE8capacityB7v160006Ev, symObjAddr: 0x16C4, symBinAddr: 0x100001F5C, symSize: 0x40 }
  - { offsetInCU: 0xECCB, offset: 0xECCB, size: 0x8, addend: 0x0, symName: __ZNKSt3__16vectorIN11Minesweeper4CellENS_9allocatorIS2_EEE9__end_capB7v160006Ev, symObjAddr: 0x1718, symBinAddr: 0x100001FB0, symSize: 0x28 }
  - { offsetInCU: 0xECF1, offset: 0xECF1, size: 0x8, addend: 0x0, symName: __ZNKSt3__117__compressed_pairIPN11Minesweeper4CellENS_9allocatorIS2_EEE5firstB7v160006Ev, symObjAddr: 0x1740, symBinAddr: 0x100001FD8, symSize: 0x24 }
  - { offsetInCU: 0xED17, offset: 0xED17, size: 0x8, addend: 0x0, symName: __ZNKSt3__122__compressed_pair_elemIPN11Minesweeper4CellELi0ELb0EE5__getB7v160006Ev, symObjAddr: 0x1764, symBinAddr: 0x100001FFC, symSize: 0x14 }
  - { offsetInCU: 0xED56, offset: 0xED56, size: 0x8, addend: 0x0, symName: __ZNSt3__16vectorIN11Minesweeper4CellENS_9allocatorIS2_EEE21_ConstructTransactionC1B7v160006ERS5_m, symObjAddr: 0x1778, symBinAddr: 0x100002010, symSize: 0x3C }
  - { offsetInCU: 0xED9E, offset: 0xED9E, size: 0x8, addend: 0x0, symName: __ZNSt3__116allocator_traitsINS_9allocatorIN11Minesweeper4CellEEEE9constructB7v160006IS3_JRKS3_EvEEvRS4_PT_DpOT0_, symObjAddr: 0x17B4, symBinAddr: 0x10000204C, symSize: 0x34 }
  - { offsetInCU: 0xEDF5, offset: 0xEDF5, size: 0x8, addend: 0x0, symName: __ZNSt3__16vectorIN11Minesweeper4CellENS_9allocatorIS2_EEE21_ConstructTransactionD1B7v160006Ev, symObjAddr: 0x17E8, symBinAddr: 0x100002080, symSize: 0x2C }
  - { offsetInCU: 0xEE1F, offset: 0xEE1F, size: 0x8, addend: 0x0, symName: __ZNSt3__16vectorIN11Minesweeper4CellENS_9allocatorIS2_EEE21_ConstructTransactionC2B7v160006ERS5_m, symObjAddr: 0x1814, symBinAddr: 0x1000020AC, symSize: 0x44 }
  - { offsetInCU: 0xEE67, offset: 0xEE67, size: 0x8, addend: 0x0, symName: __ZNSt3__19allocatorIN11Minesweeper4CellEE9constructB7v160006IS2_JRKS2_EEEvPT_DpOT0_, symObjAddr: 0x1858, symBinAddr: 0x1000020F0, symSize: 0x28 }
  - { offsetInCU: 0xEEBD, offset: 0xEEBD, size: 0x8, addend: 0x0, symName: __ZNSt3__16vectorIN11Minesweeper4CellENS_9allocatorIS2_EEE21_ConstructTransactionD2B7v160006Ev, symObjAddr: 0x1880, symBinAddr: 0x100002118, symSize: 0x20 }
  - { offsetInCU: 0xEEE7, offset: 0xEEE7, size: 0x8, addend: 0x0, symName: __ZNSt3__128__exception_guard_exceptionsINS_6vectorIN11Minesweeper4CellENS_9allocatorIS3_EEE16__destroy_vectorEED2B7v160006Ev, symObjAddr: 0x18A0, symBinAddr: 0x100002138, symSize: 0x50 }
  - { offsetInCU: 0xEF11, offset: 0xEF11, size: 0x8, addend: 0x0, symName: __ZNSt3__16vectorIN11Minesweeper4CellENS_9allocatorIS2_EEE16__destroy_vectorclB7v160006Ev, symObjAddr: 0x18F0, symBinAddr: 0x100002188, symSize: 0x9C }
  - { offsetInCU: 0xEF37, offset: 0xEF37, size: 0x8, addend: 0x0, symName: __ZNKSt3__16vectorIN11Minesweeper4CellENS_9allocatorIS2_EEE17__annotate_deleteB7v160006Ev, symObjAddr: 0x198C, symBinAddr: 0x100002224, symSize: 0xB8 }
  - { offsetInCU: 0xEF5D, offset: 0xEF5D, size: 0x8, addend: 0x0, symName: __ZNSt3__16vectorIN11Minesweeper4CellENS_9allocatorIS2_EEE7__clearB7v160006Ev, symObjAddr: 0x1A54, symBinAddr: 0x1000022EC, symSize: 0x28 }
  - { offsetInCU: 0xEF83, offset: 0xEF83, size: 0x8, addend: 0x0, symName: __ZNSt3__116allocator_traitsINS_9allocatorIN11Minesweeper4CellEEEE10deallocateB7v160006ERS4_PS3_m, symObjAddr: 0x1A7C, symBinAddr: 0x100002314, symSize: 0x34 }
  - { offsetInCU: 0xEFC5, offset: 0xEFC5, size: 0x8, addend: 0x0, symName: __ZNKSt3__16vectorIN11Minesweeper4CellENS_9allocatorIS2_EEE4sizeB7v160006Ev, symObjAddr: 0x1AB0, symBinAddr: 0x100002348, symSize: 0x28 }
  - { offsetInCU: 0xEFEB, offset: 0xEFEB, size: 0x8, addend: 0x0, symName: __ZNSt3__16vectorIN11Minesweeper4CellENS_9allocatorIS2_EEE22__base_destruct_at_endB7v160006EPS2_, symObjAddr: 0x1AD8, symBinAddr: 0x100002370, symSize: 0x8C }
  - { offsetInCU: 0xF02F, offset: 0xF02F, size: 0x8, addend: 0x0, symName: __ZNSt3__116allocator_traitsINS_9allocatorIN11Minesweeper4CellEEEE7destroyB7v160006IS3_vEEvRS4_PT_, symObjAddr: 0x1B64, symBinAddr: 0x1000023FC, symSize: 0x2C }
  - { offsetInCU: 0xF06C, offset: 0xF06C, size: 0x8, addend: 0x0, symName: __ZNSt3__19allocatorIN11Minesweeper4CellEE7destroyB7v160006EPS2_, symObjAddr: 0x1B90, symBinAddr: 0x100002428, symSize: 0x14 }
  - { offsetInCU: 0xF0A0, offset: 0xF0A0, size: 0x8, addend: 0x0, symName: __ZNSt3__19allocatorIN11Minesweeper4CellEE10deallocateB7v160006EPS2_m, symObjAddr: 0x1BA4, symBinAddr: 0x10000243C, symSize: 0x40 }
  - { offsetInCU: 0xF0E2, offset: 0xF0E2, size: 0x8, addend: 0x0, symName: __ZNSt3__16vectorINS0_IN11Minesweeper4CellENS_9allocatorIS2_EEEENS3_IS5_EEEC2EmRKS5_, symObjAddr: 0x1C60, symBinAddr: 0x1000024F8, symSize: 0xE8 }
  - { offsetInCU: 0xF141, offset: 0xF141, size: 0x8, addend: 0x0, symName: __ZNSt3__117__compressed_pairIPNS_6vectorIN11Minesweeper4CellENS_9allocatorIS3_EEEENS4_IS6_EEEC1B7v160006IDnNS_18__default_init_tagEEEOT_OT0_, symObjAddr: 0x1D48, symBinAddr: 0x1000025E0, symSize: 0x3C }
  - { offsetInCU: 0xF199, offset: 0xF199, size: 0x8, addend: 0x0, symName: __ZNSt3__16vectorINS0_IN11Minesweeper4CellENS_9allocatorIS2_EEEENS3_IS5_EEE16__destroy_vectorC1ERS7_, symObjAddr: 0x1DC4, symBinAddr: 0x10000265C, symSize: 0x34 }
  - { offsetInCU: 0xF1D2, offset: 0xF1D2, size: 0x8, addend: 0x0, symName: __ZNSt3__16vectorINS0_IN11Minesweeper4CellENS_9allocatorIS2_EEEENS3_IS5_EEE11__vallocateB7v160006Em, symObjAddr: 0x1E08, symBinAddr: 0x1000026A0, symSize: 0xB4 }
  - { offsetInCU: 0xF216, offset: 0xF216, size: 0x8, addend: 0x0, symName: __ZNSt3__16vectorINS0_IN11Minesweeper4CellENS_9allocatorIS2_EEEENS3_IS5_EEE18__construct_at_endEmRKS5_, symObjAddr: 0x1EBC, symBinAddr: 0x100002754, symSize: 0xD0 }
  - { offsetInCU: 0xF297, offset: 0xF297, size: 0x8, addend: 0x0, symName: __ZNSt3__128__exception_guard_exceptionsINS_6vectorINS1_IN11Minesweeper4CellENS_9allocatorIS3_EEEENS4_IS6_EEE16__destroy_vectorEE10__completeB7v160006Ev, symObjAddr: 0x1F8C, symBinAddr: 0x100002824, symSize: 0x1C }
  - { offsetInCU: 0xF2BD, offset: 0xF2BD, size: 0x8, addend: 0x0, symName: __ZNSt3__128__exception_guard_exceptionsINS_6vectorINS1_IN11Minesweeper4CellENS_9allocatorIS3_EEEENS4_IS6_EEE16__destroy_vectorEED1B7v160006Ev, symObjAddr: 0x1FA8, symBinAddr: 0x100002840, symSize: 0x2C }
  - { offsetInCU: 0xF2E7, offset: 0xF2E7, size: 0x8, addend: 0x0, symName: __ZNSt3__117__compressed_pairIPNS_6vectorIN11Minesweeper4CellENS_9allocatorIS3_EEEENS4_IS6_EEEC2B7v160006IDnNS_18__default_init_tagEEEOT_OT0_, symObjAddr: 0x1FD4, symBinAddr: 0x10000286C, symSize: 0x40 }
  - { offsetInCU: 0xF33F, offset: 0xF33F, size: 0x8, addend: 0x0, symName: __ZNSt3__122__compressed_pair_elemIPNS_6vectorIN11Minesweeper4CellENS_9allocatorIS3_EEEELi0ELb0EEC2B7v160006IDnvEEOT_, symObjAddr: 0x2014, symBinAddr: 0x1000028AC, symSize: 0x1C }
  - { offsetInCU: 0xF381, offset: 0xF381, size: 0x8, addend: 0x0, symName: __ZNSt3__122__compressed_pair_elemINS_9allocatorINS_6vectorIN11Minesweeper4CellENS1_IS4_EEEEEELi1ELb1EEC2B7v160006ENS_18__default_init_tagE, symObjAddr: 0x2030, symBinAddr: 0x1000028C8, symSize: 0x2C }
  - { offsetInCU: 0xF3B6, offset: 0xF3B6, size: 0x8, addend: 0x0, symName: __ZNSt3__19allocatorINS_6vectorIN11Minesweeper4CellENS0_IS3_EEEEEC2B7v160006Ev, symObjAddr: 0x205C, symBinAddr: 0x1000028F4, symSize: 0x2C }
  - { offsetInCU: 0xF3E0, offset: 0xF3E0, size: 0x8, addend: 0x0, symName: __ZNSt3__116__non_trivial_ifILb1ENS_9allocatorINS_6vectorIN11Minesweeper4CellENS1_IS4_EEEEEEEC2B7v160006Ev, symObjAddr: 0x2088, symBinAddr: 0x100002920, symSize: 0x14 }
  - { offsetInCU: 0xF40A, offset: 0xF40A, size: 0x8, addend: 0x0, symName: __ZNSt3__128__exception_guard_exceptionsINS_6vectorINS1_IN11Minesweeper4CellENS_9allocatorIS3_EEEENS4_IS6_EEE16__destroy_vectorEEC1B7v160006ES9_, symObjAddr: 0x209C, symBinAddr: 0x100002934, symSize: 0x34 }
  - { offsetInCU: 0xF442, offset: 0xF442, size: 0x8, addend: 0x0, symName: __ZNSt3__128__exception_guard_exceptionsINS_6vectorINS1_IN11Minesweeper4CellENS_9allocatorIS3_EEEENS4_IS6_EEE16__destroy_vectorEEC2B7v160006ES9_, symObjAddr: 0x20D0, symBinAddr: 0x100002968, symSize: 0x24 }
  - { offsetInCU: 0xF47A, offset: 0xF47A, size: 0x8, addend: 0x0, symName: __ZNSt3__16vectorINS0_IN11Minesweeper4CellENS_9allocatorIS2_EEEENS3_IS5_EEE16__destroy_vectorC2ERS7_, symObjAddr: 0x20F4, symBinAddr: 0x10000298C, symSize: 0x20 }
  - { offsetInCU: 0xF4B3, offset: 0xF4B3, size: 0x8, addend: 0x0, symName: __ZNKSt3__16vectorINS0_IN11Minesweeper4CellENS_9allocatorIS2_EEEENS3_IS5_EEE8max_sizeEv, symObjAddr: 0x2114, symBinAddr: 0x1000029AC, symSize: 0x60 }
  - { offsetInCU: 0xF4DB, offset: 0xF4DB, size: 0x8, addend: 0x0, symName: __ZNKSt3__16vectorINS0_IN11Minesweeper4CellENS_9allocatorIS2_EEEENS3_IS5_EEE20__throw_length_errorB7v160006Ev, symObjAddr: 0x2174, symBinAddr: 0x100002A0C, symSize: 0x1C }
  - { offsetInCU: 0xF501, offset: 0xF501, size: 0x8, addend: 0x0, symName: __ZNSt3__16vectorINS0_IN11Minesweeper4CellENS_9allocatorIS2_EEEENS3_IS5_EEE7__allocB7v160006Ev, symObjAddr: 0x21D0, symBinAddr: 0x100002A68, symSize: 0x28 }
  - { offsetInCU: 0xF527, offset: 0xF527, size: 0x8, addend: 0x0, symName: __ZNSt3__16vectorINS0_IN11Minesweeper4CellENS_9allocatorIS2_EEEENS3_IS5_EEE9__end_capB7v160006Ev, symObjAddr: 0x21F8, symBinAddr: 0x100002A90, symSize: 0x28 }
  - { offsetInCU: 0xF54D, offset: 0xF54D, size: 0x8, addend: 0x0, symName: __ZNKSt3__16vectorINS0_IN11Minesweeper4CellENS_9allocatorIS2_EEEENS3_IS5_EEE14__annotate_newB7v160006Em, symObjAddr: 0x2220, symBinAddr: 0x100002AB8, symSize: 0xC8 }
  - { offsetInCU: 0xF58C, offset: 0xF58C, size: 0x8, addend: 0x0, symName: __ZNSt3__116allocator_traitsINS_9allocatorINS_6vectorIN11Minesweeper4CellENS1_IS4_EEEEEEE8max_sizeB7v160006IS7_vEEmRKS7_, symObjAddr: 0x22E8, symBinAddr: 0x100002B80, symSize: 0x24 }
  - { offsetInCU: 0xF5BA, offset: 0xF5BA, size: 0x8, addend: 0x0, symName: __ZNKSt3__16vectorINS0_IN11Minesweeper4CellENS_9allocatorIS2_EEEENS3_IS5_EEE7__allocB7v160006Ev, symObjAddr: 0x230C, symBinAddr: 0x100002BA4, symSize: 0x28 }
  - { offsetInCU: 0xF5E0, offset: 0xF5E0, size: 0x8, addend: 0x0, symName: __ZNKSt3__19allocatorINS_6vectorIN11Minesweeper4CellENS0_IS3_EEEEE8max_sizeB7v160006Ev, symObjAddr: 0x2334, symBinAddr: 0x100002BCC, symSize: 0x18 }
  - { offsetInCU: 0xF606, offset: 0xF606, size: 0x8, addend: 0x0, symName: __ZNKSt3__117__compressed_pairIPNS_6vectorIN11Minesweeper4CellENS_9allocatorIS3_EEEENS4_IS6_EEE6secondB7v160006Ev, symObjAddr: 0x234C, symBinAddr: 0x100002BE4, symSize: 0x24 }
  - { offsetInCU: 0xF62C, offset: 0xF62C, size: 0x8, addend: 0x0, symName: __ZNKSt3__122__compressed_pair_elemINS_9allocatorINS_6vectorIN11Minesweeper4CellENS1_IS4_EEEEEELi1ELb1EE5__getB7v160006Ev, symObjAddr: 0x2370, symBinAddr: 0x100002C08, symSize: 0x14 }
  - { offsetInCU: 0xF652, offset: 0xF652, size: 0x8, addend: 0x0, symName: __ZNSt3__19allocatorINS_6vectorIN11Minesweeper4CellENS0_IS3_EEEEE8allocateB7v160006Em, symObjAddr: 0x2384, symBinAddr: 0x100002C1C, symSize: 0x5C }
  - { offsetInCU: 0xF686, offset: 0xF686, size: 0x8, addend: 0x0, symName: __ZNSt3__117__compressed_pairIPNS_6vectorIN11Minesweeper4CellENS_9allocatorIS3_EEEENS4_IS6_EEE6secondB7v160006Ev, symObjAddr: 0x23E0, symBinAddr: 0x100002C78, symSize: 0x24 }
  - { offsetInCU: 0xF6AC, offset: 0xF6AC, size: 0x8, addend: 0x0, symName: __ZNSt3__122__compressed_pair_elemINS_9allocatorINS_6vectorIN11Minesweeper4CellENS1_IS4_EEEEEELi1ELb1EE5__getB7v160006Ev, symObjAddr: 0x2404, symBinAddr: 0x100002C9C, symSize: 0x14 }
  - { offsetInCU: 0xF6D2, offset: 0xF6D2, size: 0x8, addend: 0x0, symName: __ZNSt3__117__compressed_pairIPNS_6vectorIN11Minesweeper4CellENS_9allocatorIS3_EEEENS4_IS6_EEE5firstB7v160006Ev, symObjAddr: 0x2418, symBinAddr: 0x100002CB0, symSize: 0x24 }
  - { offsetInCU: 0xF6F8, offset: 0xF6F8, size: 0x8, addend: 0x0, symName: __ZNSt3__122__compressed_pair_elemIPNS_6vectorIN11Minesweeper4CellENS_9allocatorIS3_EEEELi0ELb0EE5__getB7v160006Ev, symObjAddr: 0x243C, symBinAddr: 0x100002CD4, symSize: 0x14 }
  - { offsetInCU: 0xF71E, offset: 0xF71E, size: 0x8, addend: 0x0, symName: __ZNKSt3__16vectorINS0_IN11Minesweeper4CellENS_9allocatorIS2_EEEENS3_IS5_EEE31__annotate_contiguous_containerB7v160006EPKvS9_S9_S9_, symObjAddr: 0x2450, symBinAddr: 0x100002CE8, symSize: 0x20 }
  - { offsetInCU: 0xF774, offset: 0xF774, size: 0x8, addend: 0x0, symName: __ZNKSt3__16vectorINS0_IN11Minesweeper4CellENS_9allocatorIS2_EEEENS3_IS5_EEE4dataB7v160006Ev, symObjAddr: 0x2470, symBinAddr: 0x100002D08, symSize: 0x28 }
  - { offsetInCU: 0xF79A, offset: 0xF79A, size: 0x8, addend: 0x0, symName: __ZNKSt3__16vectorINS0_IN11Minesweeper4CellENS_9allocatorIS2_EEEENS3_IS5_EEE8capacityB7v160006Ev, symObjAddr: 0x2498, symBinAddr: 0x100002D30, symSize: 0x40 }
  - { offsetInCU: 0xF7C0, offset: 0xF7C0, size: 0x8, addend: 0x0, symName: __ZNKSt3__16vectorINS0_IN11Minesweeper4CellENS_9allocatorIS2_EEEENS3_IS5_EEE9__end_capB7v160006Ev, symObjAddr: 0x24EC, symBinAddr: 0x100002D84, symSize: 0x28 }
  - { offsetInCU: 0xF7E6, offset: 0xF7E6, size: 0x8, addend: 0x0, symName: __ZNKSt3__117__compressed_pairIPNS_6vectorIN11Minesweeper4CellENS_9allocatorIS3_EEEENS4_IS6_EEE5firstB7v160006Ev, symObjAddr: 0x2514, symBinAddr: 0x100002DAC, symSize: 0x24 }
  - { offsetInCU: 0xF80C, offset: 0xF80C, size: 0x8, addend: 0x0, symName: __ZNKSt3__122__compressed_pair_elemIPNS_6vectorIN11Minesweeper4CellENS_9allocatorIS3_EEEELi0ELb0EE5__getB7v160006Ev, symObjAddr: 0x2538, symBinAddr: 0x100002DD0, symSize: 0x14 }
  - { offsetInCU: 0xF84B, offset: 0xF84B, size: 0x8, addend: 0x0, symName: __ZNSt3__16vectorINS0_IN11Minesweeper4CellENS_9allocatorIS2_EEEENS3_IS5_EEE21_ConstructTransactionC1B7v160006ERS7_m, symObjAddr: 0x254C, symBinAddr: 0x100002DE4, symSize: 0x3C }
  - { offsetInCU: 0xF893, offset: 0xF893, size: 0x8, addend: 0x0, symName: __ZNSt3__116allocator_traitsINS_9allocatorINS_6vectorIN11Minesweeper4CellENS1_IS4_EEEEEEE9constructB7v160006IS6_JRKS6_EvEEvRS7_PT_DpOT0_, symObjAddr: 0x2588, symBinAddr: 0x100002E20, symSize: 0x34 }
  - { offsetInCU: 0xF8EA, offset: 0xF8EA, size: 0x8, addend: 0x0, symName: __ZNSt3__16vectorINS0_IN11Minesweeper4CellENS_9allocatorIS2_EEEENS3_IS5_EEE21_ConstructTransactionD1B7v160006Ev, symObjAddr: 0x25BC, symBinAddr: 0x100002E54, symSize: 0x2C }
  - { offsetInCU: 0xF914, offset: 0xF914, size: 0x8, addend: 0x0, symName: __ZNSt3__16vectorINS0_IN11Minesweeper4CellENS_9allocatorIS2_EEEENS3_IS5_EEE21_ConstructTransactionC2B7v160006ERS7_m, symObjAddr: 0x25E8, symBinAddr: 0x100002E80, symSize: 0x4C }
  - { offsetInCU: 0xF95C, offset: 0xF95C, size: 0x8, addend: 0x0, symName: __ZNSt3__19allocatorINS_6vectorIN11Minesweeper4CellENS0_IS3_EEEEE9constructB7v160006IS5_JRKS5_EEEvPT_DpOT0_, symObjAddr: 0x2634, symBinAddr: 0x100002ECC, symSize: 0x30 }
  - { offsetInCU: 0xF9B2, offset: 0xF9B2, size: 0x8, addend: 0x0, symName: __ZNSt3__16vectorIN11Minesweeper4CellENS_9allocatorIS2_EEEC1ERKS5_, symObjAddr: 0x2664, symBinAddr: 0x100002EFC, symSize: 0x34 }
  - { offsetInCU: 0xF9ED, offset: 0xF9ED, size: 0x8, addend: 0x0, symName: __ZNSt3__16vectorIN11Minesweeper4CellENS_9allocatorIS2_EEEC2ERKS5_, symObjAddr: 0x2698, symBinAddr: 0x100002F30, symSize: 0x110 }
  - { offsetInCU: 0xFA4C, offset: 0xFA4C, size: 0x8, addend: 0x0, symName: __ZNSt3__116allocator_traitsINS_9allocatorIN11Minesweeper4CellEEEE37select_on_container_copy_constructionB7v160006IS4_vvEES4_RKS4_, symObjAddr: 0x27A8, symBinAddr: 0x100003040, symSize: 0x10 }
  - { offsetInCU: 0xFA80, offset: 0xFA80, size: 0x8, addend: 0x0, symName: __ZNSt3__117__compressed_pairIPN11Minesweeper4CellENS_9allocatorIS2_EEEC1B7v160006IDnS5_EEOT_OT0_, symObjAddr: 0x27B8, symBinAddr: 0x100003050, symSize: 0x3C }
  - { offsetInCU: 0xFAD8, offset: 0xFAD8, size: 0x8, addend: 0x0, symName: __ZNSt3__16vectorIN11Minesweeper4CellENS_9allocatorIS2_EEE18__construct_at_endIPS2_Li0EEEvT_S8_m, symObjAddr: 0x27F4, symBinAddr: 0x10000308C, symSize: 0x8C }
  - { offsetInCU: 0xFB4B, offset: 0xFB4B, size: 0x8, addend: 0x0, symName: __ZNSt3__117__compressed_pairIPN11Minesweeper4CellENS_9allocatorIS2_EEEC2B7v160006IDnS5_EEOT_OT0_, symObjAddr: 0x2880, symBinAddr: 0x100003118, symSize: 0x44 }
  - { offsetInCU: 0xFBA3, offset: 0xFBA3, size: 0x8, addend: 0x0, symName: __ZNSt3__122__compressed_pair_elemINS_9allocatorIN11Minesweeper4CellEEELi1ELb1EEC2B7v160006IS4_vEEOT_, symObjAddr: 0x28C4, symBinAddr: 0x10000315C, symSize: 0x18 }
  - { offsetInCU: 0xFBE5, offset: 0xFBE5, size: 0x8, addend: 0x0, symName: __ZNSt3__129_AllocatorDestroyRangeReverseINS_9allocatorIN11Minesweeper4CellEEEPS3_EC1B7v160006ERS4_RS5_S8_, symObjAddr: 0x2A1C, symBinAddr: 0x1000032B4, symSize: 0x44 }
  - { offsetInCU: 0xFC3C, offset: 0xFC3C, size: 0x8, addend: 0x0, symName: __ZNSt3__116allocator_traitsINS_9allocatorIN11Minesweeper4CellEEEE9constructB7v160006IS3_JRS3_EvEEvRS4_PT_DpOT0_, symObjAddr: 0x2A60, symBinAddr: 0x1000032F8, symSize: 0x34 }
  - { offsetInCU: 0xFC93, offset: 0xFC93, size: 0x8, addend: 0x0, symName: __ZNSt3__128__exception_guard_exceptionsINS_29_AllocatorDestroyRangeReverseINS_9allocatorIN11Minesweeper4CellEEEPS4_EEE10__completeB7v160006Ev, symObjAddr: 0x2A94, symBinAddr: 0x10000332C, symSize: 0x1C }
  - { offsetInCU: 0xFCB9, offset: 0xFCB9, size: 0x8, addend: 0x0, symName: __ZNSt3__128__exception_guard_exceptionsINS_29_AllocatorDestroyRangeReverseINS_9allocatorIN11Minesweeper4CellEEEPS4_EEED1B7v160006Ev, symObjAddr: 0x2AB0, symBinAddr: 0x100003348, symSize: 0x2C }
  - { offsetInCU: 0xFCE3, offset: 0xFCE3, size: 0x8, addend: 0x0, symName: __ZNSt3__128__exception_guard_exceptionsINS_29_AllocatorDestroyRangeReverseINS_9allocatorIN11Minesweeper4CellEEEPS4_EEEC1B7v160006ES7_, symObjAddr: 0x2ADC, symBinAddr: 0x100003374, symSize: 0x34 }
  - { offsetInCU: 0xFD1C, offset: 0xFD1C, size: 0x8, addend: 0x0, symName: __ZNSt3__128__exception_guard_exceptionsINS_29_AllocatorDestroyRangeReverseINS_9allocatorIN11Minesweeper4CellEEEPS4_EEEC2B7v160006ES7_, symObjAddr: 0x2B10, symBinAddr: 0x1000033A8, symSize: 0x30 }
  - { offsetInCU: 0xFD55, offset: 0xFD55, size: 0x8, addend: 0x0, symName: __ZNSt3__129_AllocatorDestroyRangeReverseINS_9allocatorIN11Minesweeper4CellEEEPS3_EC2B7v160006ERS4_RS5_S8_, symObjAddr: 0x2B40, symBinAddr: 0x1000033D8, symSize: 0x38 }
  - { offsetInCU: 0xFDAC, offset: 0xFDAC, size: 0x8, addend: 0x0, symName: __ZNSt3__19allocatorIN11Minesweeper4CellEE9constructB7v160006IS2_JRS2_EEEvPT_DpOT0_, symObjAddr: 0x2B78, symBinAddr: 0x100003410, symSize: 0x28 }
  - { offsetInCU: 0xFE02, offset: 0xFE02, size: 0x8, addend: 0x0, symName: __ZNSt3__128__exception_guard_exceptionsINS_29_AllocatorDestroyRangeReverseINS_9allocatorIN11Minesweeper4CellEEEPS4_EEED2B7v160006Ev, symObjAddr: 0x2BA0, symBinAddr: 0x100003438, symSize: 0x50 }
  - { offsetInCU: 0xFE2C, offset: 0xFE2C, size: 0x8, addend: 0x0, symName: __ZNKSt3__129_AllocatorDestroyRangeReverseINS_9allocatorIN11Minesweeper4CellEEEPS3_EclB7v160006Ev, symObjAddr: 0x2BF0, symBinAddr: 0x100003488, symSize: 0x68 }
  - { offsetInCU: 0xFE52, offset: 0xFE52, size: 0x8, addend: 0x0, symName: __ZNSt3__116reverse_iteratorIPN11Minesweeper4CellEEC1B7v160006ES3_, symObjAddr: 0x2CC8, symBinAddr: 0x100003560, symSize: 0x34 }
  - { offsetInCU: 0xFE8A, offset: 0xFE8A, size: 0x8, addend: 0x0, symName: __ZNSt3__116reverse_iteratorIPN11Minesweeper4CellEEppB7v160006Ev, symObjAddr: 0x2D68, symBinAddr: 0x100003600, symSize: 0x20 }
  - { offsetInCU: 0xFEB0, offset: 0xFEB0, size: 0x8, addend: 0x0, symName: __ZNKSt3__116reverse_iteratorIPN11Minesweeper4CellEE4baseB7v160006Ev, symObjAddr: 0x2D88, symBinAddr: 0x100003620, symSize: 0x18 }
  - { offsetInCU: 0xFEDB, offset: 0xFEDB, size: 0x8, addend: 0x0, symName: __ZNSt3__119__to_address_helperINS_16reverse_iteratorIPN11Minesweeper4CellEEEvE6__callB7v160006ERKS5_, symObjAddr: 0x2DA0, symBinAddr: 0x100003638, symSize: 0x38 }
  - { offsetInCU: 0xFEFE, offset: 0xFEFE, size: 0x8, addend: 0x0, symName: __ZNKSt3__116reverse_iteratorIPN11Minesweeper4CellEEptB7v160006Ev, symObjAddr: 0x2DD8, symBinAddr: 0x100003670, symSize: 0x24 }
  - { offsetInCU: 0xFF24, offset: 0xFF24, size: 0x8, addend: 0x0, symName: __ZNKSt3__116reverse_iteratorIPN11Minesweeper4CellEEdeB7v160006Ev, symObjAddr: 0x2DFC, symBinAddr: 0x100003694, symSize: 0x28 }
  - { offsetInCU: 0xFF58, offset: 0xFF58, size: 0x8, addend: 0x0, symName: __ZNSt3__116reverse_iteratorIPN11Minesweeper4CellEEC2B7v160006ES3_, symObjAddr: 0x2E24, symBinAddr: 0x1000036BC, symSize: 0x28 }
  - { offsetInCU: 0xFF90, offset: 0xFF90, size: 0x8, addend: 0x0, symName: __ZNSt3__16vectorINS0_IN11Minesweeper4CellENS_9allocatorIS2_EEEENS3_IS5_EEE21_ConstructTransactionD2B7v160006Ev, symObjAddr: 0x2E4C, symBinAddr: 0x1000036E4, symSize: 0x20 }
  - { offsetInCU: 0xFFBA, offset: 0xFFBA, size: 0x8, addend: 0x0, symName: __ZNSt3__128__exception_guard_exceptionsINS_6vectorINS1_IN11Minesweeper4CellENS_9allocatorIS3_EEEENS4_IS6_EEE16__destroy_vectorEED2B7v160006Ev, symObjAddr: 0x2E6C, symBinAddr: 0x100003704, symSize: 0x50 }
  - { offsetInCU: 0xFFE4, offset: 0xFFE4, size: 0x8, addend: 0x0, symName: __ZNSt3__16vectorINS0_IN11Minesweeper4CellENS_9allocatorIS2_EEEENS3_IS5_EEE16__destroy_vectorclB7v160006Ev, symObjAddr: 0x2EBC, symBinAddr: 0x100003754, symSize: 0x9C }
  - { offsetInCU: 0x1000A, offset: 0x1000A, size: 0x8, addend: 0x0, symName: __ZNKSt3__16vectorINS0_IN11Minesweeper4CellENS_9allocatorIS2_EEEENS3_IS5_EEE17__annotate_deleteB7v160006Ev, symObjAddr: 0x2F58, symBinAddr: 0x1000037F0, symSize: 0xD4 }
  - { offsetInCU: 0x10030, offset: 0x10030, size: 0x8, addend: 0x0, symName: __ZNSt3__16vectorINS0_IN11Minesweeper4CellENS_9allocatorIS2_EEEENS3_IS5_EEE7__clearB7v160006Ev, symObjAddr: 0x303C, symBinAddr: 0x1000038D4, symSize: 0x28 }
  - { offsetInCU: 0x10056, offset: 0x10056, size: 0x8, addend: 0x0, symName: __ZNSt3__116allocator_traitsINS_9allocatorINS_6vectorIN11Minesweeper4CellENS1_IS4_EEEEEEE10deallocateB7v160006ERS7_PS6_m, symObjAddr: 0x3064, symBinAddr: 0x1000038FC, symSize: 0x34 }
  - { offsetInCU: 0x10098, offset: 0x10098, size: 0x8, addend: 0x0, symName: __ZNKSt3__16vectorINS0_IN11Minesweeper4CellENS_9allocatorIS2_EEEENS3_IS5_EEE4sizeB7v160006Ev, symObjAddr: 0x3098, symBinAddr: 0x100003930, symSize: 0x28 }
  - { offsetInCU: 0x100BE, offset: 0x100BE, size: 0x8, addend: 0x0, symName: __ZNSt3__16vectorINS0_IN11Minesweeper4CellENS_9allocatorIS2_EEEENS3_IS5_EEE22__base_destruct_at_endB7v160006EPS5_, symObjAddr: 0x30C0, symBinAddr: 0x100003958, symSize: 0x8C }
  - { offsetInCU: 0x10102, offset: 0x10102, size: 0x8, addend: 0x0, symName: __ZNSt3__116allocator_traitsINS_9allocatorINS_6vectorIN11Minesweeper4CellENS1_IS4_EEEEEEE7destroyB7v160006IS6_vEEvRS7_PT_, symObjAddr: 0x314C, symBinAddr: 0x1000039E4, symSize: 0x2C }
  - { offsetInCU: 0x1013F, offset: 0x1013F, size: 0x8, addend: 0x0, symName: __ZNSt3__19allocatorINS_6vectorIN11Minesweeper4CellENS0_IS3_EEEEE7destroyB7v160006EPS5_, symObjAddr: 0x3178, symBinAddr: 0x100003A10, symSize: 0x28 }
  - { offsetInCU: 0x10173, offset: 0x10173, size: 0x8, addend: 0x0, symName: __ZNSt3__19allocatorINS_6vectorIN11Minesweeper4CellENS0_IS3_EEEEE10deallocateB7v160006EPS5_m, symObjAddr: 0x31A0, symBinAddr: 0x100003A38, symSize: 0x44 }
  - { offsetInCU: 0x101B5, offset: 0x101B5, size: 0x8, addend: 0x0, symName: __ZNSt3__16vectorIN11Minesweeper4CellENS_9allocatorIS2_EEED2B7v160006Ev, symObjAddr: 0x31E4, symBinAddr: 0x100003A7C, symSize: 0x44 }
  - { offsetInCU: 0x101DF, offset: 0x101DF, size: 0x8, addend: 0x0, symName: __ZNSt3__16vectorIiNS_9allocatorIiEEEC2EmRKi, symObjAddr: 0x3228, symBinAddr: 0x100003AC0, symSize: 0xE8 }
  - { offsetInCU: 0x1023E, offset: 0x1023E, size: 0x8, addend: 0x0, symName: __ZNSt3__117__compressed_pairIPiNS_9allocatorIiEEEC1B7v160006IDnNS_18__default_init_tagEEEOT_OT0_, symObjAddr: 0x3310, symBinAddr: 0x100003BA8, symSize: 0x3C }
  - { offsetInCU: 0x10296, offset: 0x10296, size: 0x8, addend: 0x0, symName: __ZNSt3__16vectorIiNS_9allocatorIiEEE16__destroy_vectorC1ERS3_, symObjAddr: 0x338C, symBinAddr: 0x100003C24, symSize: 0x34 }
  - { offsetInCU: 0x102CF, offset: 0x102CF, size: 0x8, addend: 0x0, symName: __ZNSt3__16vectorIiNS_9allocatorIiEEE11__vallocateB7v160006Em, symObjAddr: 0x33D0, symBinAddr: 0x100003C68, symSize: 0xAC }
  - { offsetInCU: 0x10313, offset: 0x10313, size: 0x8, addend: 0x0, symName: __ZNSt3__16vectorIiNS_9allocatorIiEEE18__construct_at_endEmRKi, symObjAddr: 0x347C, symBinAddr: 0x100003D14, symSize: 0xD0 }
  - { offsetInCU: 0x10394, offset: 0x10394, size: 0x8, addend: 0x0, symName: __ZNSt3__128__exception_guard_exceptionsINS_6vectorIiNS_9allocatorIiEEE16__destroy_vectorEE10__completeB7v160006Ev, symObjAddr: 0x354C, symBinAddr: 0x100003DE4, symSize: 0x1C }
  - { offsetInCU: 0x103BA, offset: 0x103BA, size: 0x8, addend: 0x0, symName: __ZNSt3__128__exception_guard_exceptionsINS_6vectorIiNS_9allocatorIiEEE16__destroy_vectorEED1B7v160006Ev, symObjAddr: 0x3568, symBinAddr: 0x100003E00, symSize: 0x2C }
  - { offsetInCU: 0x103E4, offset: 0x103E4, size: 0x8, addend: 0x0, symName: __ZNSt3__117__compressed_pairIPiNS_9allocatorIiEEEC2B7v160006IDnNS_18__default_init_tagEEEOT_OT0_, symObjAddr: 0x3594, symBinAddr: 0x100003E2C, symSize: 0x40 }
  - { offsetInCU: 0x1043C, offset: 0x1043C, size: 0x8, addend: 0x0, symName: __ZNSt3__122__compressed_pair_elemIPiLi0ELb0EEC2B7v160006IDnvEEOT_, symObjAddr: 0x35D4, symBinAddr: 0x100003E6C, symSize: 0x1C }
  - { offsetInCU: 0x1047E, offset: 0x1047E, size: 0x8, addend: 0x0, symName: __ZNSt3__122__compressed_pair_elemINS_9allocatorIiEELi1ELb1EEC2B7v160006ENS_18__default_init_tagE, symObjAddr: 0x35F0, symBinAddr: 0x100003E88, symSize: 0x2C }
  - { offsetInCU: 0x104B3, offset: 0x104B3, size: 0x8, addend: 0x0, symName: __ZNSt3__19allocatorIiEC2B7v160006Ev, symObjAddr: 0x361C, symBinAddr: 0x100003EB4, symSize: 0x2C }
  - { offsetInCU: 0x104DD, offset: 0x104DD, size: 0x8, addend: 0x0, symName: __ZNSt3__116__non_trivial_ifILb1ENS_9allocatorIiEEEC2B7v160006Ev, symObjAddr: 0x3648, symBinAddr: 0x100003EE0, symSize: 0x14 }
  - { offsetInCU: 0x10507, offset: 0x10507, size: 0x8, addend: 0x0, symName: __ZNSt3__128__exception_guard_exceptionsINS_6vectorIiNS_9allocatorIiEEE16__destroy_vectorEEC1B7v160006ES5_, symObjAddr: 0x365C, symBinAddr: 0x100003EF4, symSize: 0x34 }
  - { offsetInCU: 0x1053F, offset: 0x1053F, size: 0x8, addend: 0x0, symName: __ZNSt3__128__exception_guard_exceptionsINS_6vectorIiNS_9allocatorIiEEE16__destroy_vectorEEC2B7v160006ES5_, symObjAddr: 0x3690, symBinAddr: 0x100003F28, symSize: 0x24 }
  - { offsetInCU: 0x10577, offset: 0x10577, size: 0x8, addend: 0x0, symName: __ZNSt3__16vectorIiNS_9allocatorIiEEE16__destroy_vectorC2ERS3_, symObjAddr: 0x36B4, symBinAddr: 0x100003F4C, symSize: 0x20 }
  - { offsetInCU: 0x105B0, offset: 0x105B0, size: 0x8, addend: 0x0, symName: __ZNKSt3__16vectorIiNS_9allocatorIiEEE8max_sizeEv, symObjAddr: 0x36D4, symBinAddr: 0x100003F6C, symSize: 0x60 }
  - { offsetInCU: 0x105D8, offset: 0x105D8, size: 0x8, addend: 0x0, symName: __ZNKSt3__16vectorIiNS_9allocatorIiEEE20__throw_length_errorB7v160006Ev, symObjAddr: 0x3734, symBinAddr: 0x100003FCC, symSize: 0x1C }
  - { offsetInCU: 0x105FE, offset: 0x105FE, size: 0x8, addend: 0x0, symName: __ZNSt3__16vectorIiNS_9allocatorIiEEE7__allocB7v160006Ev, symObjAddr: 0x3790, symBinAddr: 0x100004028, symSize: 0x28 }
  - { offsetInCU: 0x10624, offset: 0x10624, size: 0x8, addend: 0x0, symName: __ZNSt3__16vectorIiNS_9allocatorIiEEE9__end_capB7v160006Ev, symObjAddr: 0x37B8, symBinAddr: 0x100004050, symSize: 0x28 }
  - { offsetInCU: 0x1064A, offset: 0x1064A, size: 0x8, addend: 0x0, symName: __ZNKSt3__16vectorIiNS_9allocatorIiEEE14__annotate_newB7v160006Em, symObjAddr: 0x37E0, symBinAddr: 0x100004078, symSize: 0xAC }
  - { offsetInCU: 0x10689, offset: 0x10689, size: 0x8, addend: 0x0, symName: __ZNSt3__116allocator_traitsINS_9allocatorIiEEE8max_sizeB7v160006IS2_vEEmRKS2_, symObjAddr: 0x388C, symBinAddr: 0x100004124, symSize: 0x24 }
  - { offsetInCU: 0x106B7, offset: 0x106B7, size: 0x8, addend: 0x0, symName: __ZNKSt3__16vectorIiNS_9allocatorIiEEE7__allocB7v160006Ev, symObjAddr: 0x38B0, symBinAddr: 0x100004148, symSize: 0x28 }
  - { offsetInCU: 0x106DD, offset: 0x106DD, size: 0x8, addend: 0x0, symName: __ZNKSt3__19allocatorIiE8max_sizeB7v160006Ev, symObjAddr: 0x38D8, symBinAddr: 0x100004170, symSize: 0x14 }
  - { offsetInCU: 0x10703, offset: 0x10703, size: 0x8, addend: 0x0, symName: __ZNKSt3__117__compressed_pairIPiNS_9allocatorIiEEE6secondB7v160006Ev, symObjAddr: 0x38EC, symBinAddr: 0x100004184, symSize: 0x24 }
  - { offsetInCU: 0x10729, offset: 0x10729, size: 0x8, addend: 0x0, symName: __ZNKSt3__122__compressed_pair_elemINS_9allocatorIiEELi1ELb1EE5__getB7v160006Ev, symObjAddr: 0x3910, symBinAddr: 0x1000041A8, symSize: 0x14 }
  - { offsetInCU: 0x1074F, offset: 0x1074F, size: 0x8, addend: 0x0, symName: __ZNSt3__19allocatorIiE8allocateB7v160006Em, symObjAddr: 0x3924, symBinAddr: 0x1000041BC, symSize: 0x58 }
  - { offsetInCU: 0x10783, offset: 0x10783, size: 0x8, addend: 0x0, symName: __ZNSt3__117__compressed_pairIPiNS_9allocatorIiEEE6secondB7v160006Ev, symObjAddr: 0x397C, symBinAddr: 0x100004214, symSize: 0x24 }
  - { offsetInCU: 0x107A9, offset: 0x107A9, size: 0x8, addend: 0x0, symName: __ZNSt3__122__compressed_pair_elemINS_9allocatorIiEELi1ELb1EE5__getB7v160006Ev, symObjAddr: 0x39A0, symBinAddr: 0x100004238, symSize: 0x14 }
  - { offsetInCU: 0x107CF, offset: 0x107CF, size: 0x8, addend: 0x0, symName: __ZNSt3__117__compressed_pairIPiNS_9allocatorIiEEE5firstB7v160006Ev, symObjAddr: 0x39B4, symBinAddr: 0x10000424C, symSize: 0x24 }
  - { offsetInCU: 0x107F5, offset: 0x107F5, size: 0x8, addend: 0x0, symName: __ZNSt3__122__compressed_pair_elemIPiLi0ELb0EE5__getB7v160006Ev, symObjAddr: 0x39D8, symBinAddr: 0x100004270, symSize: 0x14 }
  - { offsetInCU: 0x1081B, offset: 0x1081B, size: 0x8, addend: 0x0, symName: __ZNKSt3__16vectorIiNS_9allocatorIiEEE31__annotate_contiguous_containerB7v160006EPKvS5_S5_S5_, symObjAddr: 0x39EC, symBinAddr: 0x100004284, symSize: 0x20 }
  - { offsetInCU: 0x10871, offset: 0x10871, size: 0x8, addend: 0x0, symName: __ZNKSt3__16vectorIiNS_9allocatorIiEEE4dataB7v160006Ev, symObjAddr: 0x3A0C, symBinAddr: 0x1000042A4, symSize: 0x28 }
  - { offsetInCU: 0x10897, offset: 0x10897, size: 0x8, addend: 0x0, symName: __ZNKSt3__16vectorIiNS_9allocatorIiEEE8capacityB7v160006Ev, symObjAddr: 0x3A34, symBinAddr: 0x1000042CC, symSize: 0x40 }
  - { offsetInCU: 0x108BD, offset: 0x108BD, size: 0x8, addend: 0x0, symName: __ZNKSt3__16vectorIiNS_9allocatorIiEEE9__end_capB7v160006Ev, symObjAddr: 0x3A88, symBinAddr: 0x100004320, symSize: 0x28 }
  - { offsetInCU: 0x108E3, offset: 0x108E3, size: 0x8, addend: 0x0, symName: __ZNKSt3__117__compressed_pairIPiNS_9allocatorIiEEE5firstB7v160006Ev, symObjAddr: 0x3AB0, symBinAddr: 0x100004348, symSize: 0x24 }
  - { offsetInCU: 0x10909, offset: 0x10909, size: 0x8, addend: 0x0, symName: __ZNKSt3__122__compressed_pair_elemIPiLi0ELb0EE5__getB7v160006Ev, symObjAddr: 0x3AD4, symBinAddr: 0x10000436C, symSize: 0x14 }
  - { offsetInCU: 0x10948, offset: 0x10948, size: 0x8, addend: 0x0, symName: __ZNSt3__16vectorIiNS_9allocatorIiEEE21_ConstructTransactionC1B7v160006ERS3_m, symObjAddr: 0x3AE8, symBinAddr: 0x100004380, symSize: 0x3C }
  - { offsetInCU: 0x10990, offset: 0x10990, size: 0x8, addend: 0x0, symName: __ZNSt3__116allocator_traitsINS_9allocatorIiEEE9constructB7v160006IiJRKiEvEEvRS2_PT_DpOT0_, symObjAddr: 0x3B24, symBinAddr: 0x1000043BC, symSize: 0x34 }
  - { offsetInCU: 0x109E7, offset: 0x109E7, size: 0x8, addend: 0x0, symName: __ZNSt3__16vectorIiNS_9allocatorIiEEE21_ConstructTransactionD1B7v160006Ev, symObjAddr: 0x3B58, symBinAddr: 0x1000043F0, symSize: 0x2C }
  - { offsetInCU: 0x10A11, offset: 0x10A11, size: 0x8, addend: 0x0, symName: __ZNSt3__16vectorIiNS_9allocatorIiEEE21_ConstructTransactionC2B7v160006ERS3_m, symObjAddr: 0x3B84, symBinAddr: 0x10000441C, symSize: 0x44 }
  - { offsetInCU: 0x10A59, offset: 0x10A59, size: 0x8, addend: 0x0, symName: __ZNSt3__19allocatorIiE9constructB7v160006IiJRKiEEEvPT_DpOT0_, symObjAddr: 0x3BC8, symBinAddr: 0x100004460, symSize: 0x28 }
  - { offsetInCU: 0x10AAF, offset: 0x10AAF, size: 0x8, addend: 0x0, symName: __ZNSt3__16vectorIiNS_9allocatorIiEEE21_ConstructTransactionD2B7v160006Ev, symObjAddr: 0x3BF0, symBinAddr: 0x100004488, symSize: 0x20 }
  - { offsetInCU: 0x10AD9, offset: 0x10AD9, size: 0x8, addend: 0x0, symName: __ZNSt3__128__exception_guard_exceptionsINS_6vectorIiNS_9allocatorIiEEE16__destroy_vectorEED2B7v160006Ev, symObjAddr: 0x3C10, symBinAddr: 0x1000044A8, symSize: 0x50 }
  - { offsetInCU: 0x10B03, offset: 0x10B03, size: 0x8, addend: 0x0, symName: __ZNSt3__16vectorIiNS_9allocatorIiEEE16__destroy_vectorclB7v160006Ev, symObjAddr: 0x3C60, symBinAddr: 0x1000044F8, symSize: 0x9C }
  - { offsetInCU: 0x10B29, offset: 0x10B29, size: 0x8, addend: 0x0, symName: __ZNKSt3__16vectorIiNS_9allocatorIiEEE17__annotate_deleteB7v160006Ev, symObjAddr: 0x3CFC, symBinAddr: 0x100004594, symSize: 0xB8 }
  - { offsetInCU: 0x10B4F, offset: 0x10B4F, size: 0x8, addend: 0x0, symName: __ZNSt3__16vectorIiNS_9allocatorIiEEE7__clearB7v160006Ev, symObjAddr: 0x3DC4, symBinAddr: 0x10000465C, symSize: 0x28 }
  - { offsetInCU: 0x10B75, offset: 0x10B75, size: 0x8, addend: 0x0, symName: __ZNSt3__116allocator_traitsINS_9allocatorIiEEE10deallocateB7v160006ERS2_Pim, symObjAddr: 0x3DEC, symBinAddr: 0x100004684, symSize: 0x34 }
  - { offsetInCU: 0x10BB7, offset: 0x10BB7, size: 0x8, addend: 0x0, symName: __ZNKSt3__16vectorIiNS_9allocatorIiEEE4sizeB7v160006Ev, symObjAddr: 0x3E20, symBinAddr: 0x1000046B8, symSize: 0x28 }
  - { offsetInCU: 0x10BDD, offset: 0x10BDD, size: 0x8, addend: 0x0, symName: __ZNSt3__16vectorIiNS_9allocatorIiEEE22__base_destruct_at_endB7v160006EPi, symObjAddr: 0x3E48, symBinAddr: 0x1000046E0, symSize: 0x8C }
  - { offsetInCU: 0x10C21, offset: 0x10C21, size: 0x8, addend: 0x0, symName: __ZNSt3__116allocator_traitsINS_9allocatorIiEEE7destroyB7v160006IivEEvRS2_PT_, symObjAddr: 0x3ED4, symBinAddr: 0x10000476C, symSize: 0x2C }
  - { offsetInCU: 0x10C5E, offset: 0x10C5E, size: 0x8, addend: 0x0, symName: __ZNSt3__19allocatorIiE7destroyB7v160006EPi, symObjAddr: 0x3F00, symBinAddr: 0x100004798, symSize: 0x14 }
  - { offsetInCU: 0x10C92, offset: 0x10C92, size: 0x8, addend: 0x0, symName: __ZNSt3__19allocatorIiE10deallocateB7v160006EPim, symObjAddr: 0x3F14, symBinAddr: 0x1000047AC, symSize: 0x40 }
  - { offsetInCU: 0x10CD4, offset: 0x10CD4, size: 0x8, addend: 0x0, symName: __ZNSt3__16vectorINS0_IiNS_9allocatorIiEEEENS1_IS3_EEEC2EmRKS3_, symObjAddr: 0x3F54, symBinAddr: 0x1000047EC, symSize: 0xE8 }
  - { offsetInCU: 0x10D33, offset: 0x10D33, size: 0x8, addend: 0x0, symName: __ZNSt3__117__compressed_pairIPNS_6vectorIiNS_9allocatorIiEEEENS2_IS4_EEEC1B7v160006IDnNS_18__default_init_tagEEEOT_OT0_, symObjAddr: 0x403C, symBinAddr: 0x1000048D4, symSize: 0x3C }
  - { offsetInCU: 0x10D8B, offset: 0x10D8B, size: 0x8, addend: 0x0, symName: __ZNSt3__16vectorINS0_IiNS_9allocatorIiEEEENS1_IS3_EEE16__destroy_vectorC1ERS5_, symObjAddr: 0x40B8, symBinAddr: 0x100004950, symSize: 0x34 }
  - { offsetInCU: 0x10DC4, offset: 0x10DC4, size: 0x8, addend: 0x0, symName: __ZNSt3__16vectorINS0_IiNS_9allocatorIiEEEENS1_IS3_EEE11__vallocateB7v160006Em, symObjAddr: 0x40FC, symBinAddr: 0x100004994, symSize: 0xB4 }
  - { offsetInCU: 0x10E08, offset: 0x10E08, size: 0x8, addend: 0x0, symName: __ZNSt3__16vectorINS0_IiNS_9allocatorIiEEEENS1_IS3_EEE18__construct_at_endEmRKS3_, symObjAddr: 0x41B0, symBinAddr: 0x100004A48, symSize: 0xD0 }
  - { offsetInCU: 0x10E89, offset: 0x10E89, size: 0x8, addend: 0x0, symName: __ZNSt3__128__exception_guard_exceptionsINS_6vectorINS1_IiNS_9allocatorIiEEEENS2_IS4_EEE16__destroy_vectorEE10__completeB7v160006Ev, symObjAddr: 0x4280, symBinAddr: 0x100004B18, symSize: 0x1C }
  - { offsetInCU: 0x10EAF, offset: 0x10EAF, size: 0x8, addend: 0x0, symName: __ZNSt3__128__exception_guard_exceptionsINS_6vectorINS1_IiNS_9allocatorIiEEEENS2_IS4_EEE16__destroy_vectorEED1B7v160006Ev, symObjAddr: 0x429C, symBinAddr: 0x100004B34, symSize: 0x2C }
  - { offsetInCU: 0x10ED9, offset: 0x10ED9, size: 0x8, addend: 0x0, symName: __ZNSt3__117__compressed_pairIPNS_6vectorIiNS_9allocatorIiEEEENS2_IS4_EEEC2B7v160006IDnNS_18__default_init_tagEEEOT_OT0_, symObjAddr: 0x42C8, symBinAddr: 0x100004B60, symSize: 0x40 }
  - { offsetInCU: 0x10F31, offset: 0x10F31, size: 0x8, addend: 0x0, symName: __ZNSt3__122__compressed_pair_elemIPNS_6vectorIiNS_9allocatorIiEEEELi0ELb0EEC2B7v160006IDnvEEOT_, symObjAddr: 0x4308, symBinAddr: 0x100004BA0, symSize: 0x1C }
  - { offsetInCU: 0x10F73, offset: 0x10F73, size: 0x8, addend: 0x0, symName: __ZNSt3__122__compressed_pair_elemINS_9allocatorINS_6vectorIiNS1_IiEEEEEELi1ELb1EEC2B7v160006ENS_18__default_init_tagE, symObjAddr: 0x4324, symBinAddr: 0x100004BBC, symSize: 0x2C }
  - { offsetInCU: 0x10FA8, offset: 0x10FA8, size: 0x8, addend: 0x0, symName: __ZNSt3__19allocatorINS_6vectorIiNS0_IiEEEEEC2B7v160006Ev, symObjAddr: 0x4350, symBinAddr: 0x100004BE8, symSize: 0x2C }
  - { offsetInCU: 0x10FD2, offset: 0x10FD2, size: 0x8, addend: 0x0, symName: __ZNSt3__116__non_trivial_ifILb1ENS_9allocatorINS_6vectorIiNS1_IiEEEEEEEC2B7v160006Ev, symObjAddr: 0x437C, symBinAddr: 0x100004C14, symSize: 0x14 }
  - { offsetInCU: 0x10FFC, offset: 0x10FFC, size: 0x8, addend: 0x0, symName: __ZNSt3__128__exception_guard_exceptionsINS_6vectorINS1_IiNS_9allocatorIiEEEENS2_IS4_EEE16__destroy_vectorEEC1B7v160006ES7_, symObjAddr: 0x4390, symBinAddr: 0x100004C28, symSize: 0x34 }
  - { offsetInCU: 0x11034, offset: 0x11034, size: 0x8, addend: 0x0, symName: __ZNSt3__128__exception_guard_exceptionsINS_6vectorINS1_IiNS_9allocatorIiEEEENS2_IS4_EEE16__destroy_vectorEEC2B7v160006ES7_, symObjAddr: 0x43C4, symBinAddr: 0x100004C5C, symSize: 0x24 }
  - { offsetInCU: 0x1106C, offset: 0x1106C, size: 0x8, addend: 0x0, symName: __ZNSt3__16vectorINS0_IiNS_9allocatorIiEEEENS1_IS3_EEE16__destroy_vectorC2ERS5_, symObjAddr: 0x43E8, symBinAddr: 0x100004C80, symSize: 0x20 }
  - { offsetInCU: 0x110A5, offset: 0x110A5, size: 0x8, addend: 0x0, symName: __ZNKSt3__16vectorINS0_IiNS_9allocatorIiEEEENS1_IS3_EEE8max_sizeEv, symObjAddr: 0x4408, symBinAddr: 0x100004CA0, symSize: 0x60 }
  - { offsetInCU: 0x110CD, offset: 0x110CD, size: 0x8, addend: 0x0, symName: __ZNKSt3__16vectorINS0_IiNS_9allocatorIiEEEENS1_IS3_EEE20__throw_length_errorB7v160006Ev, symObjAddr: 0x4468, symBinAddr: 0x100004D00, symSize: 0x1C }
  - { offsetInCU: 0x110F3, offset: 0x110F3, size: 0x8, addend: 0x0, symName: __ZNSt3__16vectorINS0_IiNS_9allocatorIiEEEENS1_IS3_EEE7__allocB7v160006Ev, symObjAddr: 0x44C4, symBinAddr: 0x100004D5C, symSize: 0x28 }
  - { offsetInCU: 0x11119, offset: 0x11119, size: 0x8, addend: 0x0, symName: __ZNSt3__16vectorINS0_IiNS_9allocatorIiEEEENS1_IS3_EEE9__end_capB7v160006Ev, symObjAddr: 0x44EC, symBinAddr: 0x100004D84, symSize: 0x28 }
  - { offsetInCU: 0x1113F, offset: 0x1113F, size: 0x8, addend: 0x0, symName: __ZNKSt3__16vectorINS0_IiNS_9allocatorIiEEEENS1_IS3_EEE14__annotate_newB7v160006Em, symObjAddr: 0x4514, symBinAddr: 0x100004DAC, symSize: 0xC8 }
  - { offsetInCU: 0x1117E, offset: 0x1117E, size: 0x8, addend: 0x0, symName: __ZNSt3__116allocator_traitsINS_9allocatorINS_6vectorIiNS1_IiEEEEEEE8max_sizeB7v160006IS5_vEEmRKS5_, symObjAddr: 0x45DC, symBinAddr: 0x100004E74, symSize: 0x24 }
  - { offsetInCU: 0x111AC, offset: 0x111AC, size: 0x8, addend: 0x0, symName: __ZNKSt3__16vectorINS0_IiNS_9allocatorIiEEEENS1_IS3_EEE7__allocB7v160006Ev, symObjAddr: 0x4600, symBinAddr: 0x100004E98, symSize: 0x28 }
  - { offsetInCU: 0x111D2, offset: 0x111D2, size: 0x8, addend: 0x0, symName: __ZNKSt3__19allocatorINS_6vectorIiNS0_IiEEEEE8max_sizeB7v160006Ev, symObjAddr: 0x4628, symBinAddr: 0x100004EC0, symSize: 0x18 }
  - { offsetInCU: 0x111F8, offset: 0x111F8, size: 0x8, addend: 0x0, symName: __ZNKSt3__117__compressed_pairIPNS_6vectorIiNS_9allocatorIiEEEENS2_IS4_EEE6secondB7v160006Ev, symObjAddr: 0x4640, symBinAddr: 0x100004ED8, symSize: 0x24 }
  - { offsetInCU: 0x1121E, offset: 0x1121E, size: 0x8, addend: 0x0, symName: __ZNKSt3__122__compressed_pair_elemINS_9allocatorINS_6vectorIiNS1_IiEEEEEELi1ELb1EE5__getB7v160006Ev, symObjAddr: 0x4664, symBinAddr: 0x100004EFC, symSize: 0x14 }
  - { offsetInCU: 0x11244, offset: 0x11244, size: 0x8, addend: 0x0, symName: __ZNSt3__19allocatorINS_6vectorIiNS0_IiEEEEE8allocateB7v160006Em, symObjAddr: 0x4678, symBinAddr: 0x100004F10, symSize: 0x5C }
  - { offsetInCU: 0x11278, offset: 0x11278, size: 0x8, addend: 0x0, symName: __ZNSt3__117__compressed_pairIPNS_6vectorIiNS_9allocatorIiEEEENS2_IS4_EEE6secondB7v160006Ev, symObjAddr: 0x46D4, symBinAddr: 0x100004F6C, symSize: 0x24 }
  - { offsetInCU: 0x1129E, offset: 0x1129E, size: 0x8, addend: 0x0, symName: __ZNSt3__122__compressed_pair_elemINS_9allocatorINS_6vectorIiNS1_IiEEEEEELi1ELb1EE5__getB7v160006Ev, symObjAddr: 0x46F8, symBinAddr: 0x100004F90, symSize: 0x14 }
  - { offsetInCU: 0x112C4, offset: 0x112C4, size: 0x8, addend: 0x0, symName: __ZNSt3__117__compressed_pairIPNS_6vectorIiNS_9allocatorIiEEEENS2_IS4_EEE5firstB7v160006Ev, symObjAddr: 0x470C, symBinAddr: 0x100004FA4, symSize: 0x24 }
  - { offsetInCU: 0x112EA, offset: 0x112EA, size: 0x8, addend: 0x0, symName: __ZNSt3__122__compressed_pair_elemIPNS_6vectorIiNS_9allocatorIiEEEELi0ELb0EE5__getB7v160006Ev, symObjAddr: 0x4730, symBinAddr: 0x100004FC8, symSize: 0x14 }
  - { offsetInCU: 0x11310, offset: 0x11310, size: 0x8, addend: 0x0, symName: __ZNKSt3__16vectorINS0_IiNS_9allocatorIiEEEENS1_IS3_EEE31__annotate_contiguous_containerB7v160006EPKvS7_S7_S7_, symObjAddr: 0x4744, symBinAddr: 0x100004FDC, symSize: 0x20 }
  - { offsetInCU: 0x11366, offset: 0x11366, size: 0x8, addend: 0x0, symName: __ZNKSt3__16vectorINS0_IiNS_9allocatorIiEEEENS1_IS3_EEE4dataB7v160006Ev, symObjAddr: 0x4764, symBinAddr: 0x100004FFC, symSize: 0x28 }
  - { offsetInCU: 0x1138C, offset: 0x1138C, size: 0x8, addend: 0x0, symName: __ZNKSt3__16vectorINS0_IiNS_9allocatorIiEEEENS1_IS3_EEE8capacityB7v160006Ev, symObjAddr: 0x478C, symBinAddr: 0x100005024, symSize: 0x40 }
  - { offsetInCU: 0x113B2, offset: 0x113B2, size: 0x8, addend: 0x0, symName: __ZNKSt3__16vectorINS0_IiNS_9allocatorIiEEEENS1_IS3_EEE9__end_capB7v160006Ev, symObjAddr: 0x47E0, symBinAddr: 0x100005078, symSize: 0x28 }
  - { offsetInCU: 0x113D8, offset: 0x113D8, size: 0x8, addend: 0x0, symName: __ZNKSt3__117__compressed_pairIPNS_6vectorIiNS_9allocatorIiEEEENS2_IS4_EEE5firstB7v160006Ev, symObjAddr: 0x4808, symBinAddr: 0x1000050A0, symSize: 0x24 }
  - { offsetInCU: 0x113FE, offset: 0x113FE, size: 0x8, addend: 0x0, symName: __ZNKSt3__122__compressed_pair_elemIPNS_6vectorIiNS_9allocatorIiEEEELi0ELb0EE5__getB7v160006Ev, symObjAddr: 0x482C, symBinAddr: 0x1000050C4, symSize: 0x14 }
  - { offsetInCU: 0x1143D, offset: 0x1143D, size: 0x8, addend: 0x0, symName: __ZNSt3__16vectorINS0_IiNS_9allocatorIiEEEENS1_IS3_EEE21_ConstructTransactionC1B7v160006ERS5_m, symObjAddr: 0x4840, symBinAddr: 0x1000050D8, symSize: 0x3C }
  - { offsetInCU: 0x11485, offset: 0x11485, size: 0x8, addend: 0x0, symName: __ZNSt3__116allocator_traitsINS_9allocatorINS_6vectorIiNS1_IiEEEEEEE9constructB7v160006IS4_JRKS4_EvEEvRS5_PT_DpOT0_, symObjAddr: 0x487C, symBinAddr: 0x100005114, symSize: 0x34 }
  - { offsetInCU: 0x114DC, offset: 0x114DC, size: 0x8, addend: 0x0, symName: __ZNSt3__16vectorINS0_IiNS_9allocatorIiEEEENS1_IS3_EEE21_ConstructTransactionD1B7v160006Ev, symObjAddr: 0x48B0, symBinAddr: 0x100005148, symSize: 0x2C }
  - { offsetInCU: 0x11506, offset: 0x11506, size: 0x8, addend: 0x0, symName: __ZNSt3__16vectorINS0_IiNS_9allocatorIiEEEENS1_IS3_EEE21_ConstructTransactionC2B7v160006ERS5_m, symObjAddr: 0x48DC, symBinAddr: 0x100005174, symSize: 0x4C }
  - { offsetInCU: 0x1154E, offset: 0x1154E, size: 0x8, addend: 0x0, symName: __ZNSt3__19allocatorINS_6vectorIiNS0_IiEEEEE9constructB7v160006IS3_JRKS3_EEEvPT_DpOT0_, symObjAddr: 0x4928, symBinAddr: 0x1000051C0, symSize: 0x30 }
  - { offsetInCU: 0x115A4, offset: 0x115A4, size: 0x8, addend: 0x0, symName: __ZNSt3__16vectorIiNS_9allocatorIiEEEC1ERKS3_, symObjAddr: 0x4958, symBinAddr: 0x1000051F0, symSize: 0x34 }
  - { offsetInCU: 0x115DF, offset: 0x115DF, size: 0x8, addend: 0x0, symName: __ZNSt3__16vectorIiNS_9allocatorIiEEEC2ERKS3_, symObjAddr: 0x498C, symBinAddr: 0x100005224, symSize: 0x110 }
  - { offsetInCU: 0x1163E, offset: 0x1163E, size: 0x8, addend: 0x0, symName: __ZNSt3__116allocator_traitsINS_9allocatorIiEEE37select_on_container_copy_constructionB7v160006IS2_vvEES2_RKS2_, symObjAddr: 0x4A9C, symBinAddr: 0x100005334, symSize: 0x10 }
  - { offsetInCU: 0x11672, offset: 0x11672, size: 0x8, addend: 0x0, symName: __ZNSt3__117__compressed_pairIPiNS_9allocatorIiEEEC1B7v160006IDnS3_EEOT_OT0_, symObjAddr: 0x4AAC, symBinAddr: 0x100005344, symSize: 0x3C }
  - { offsetInCU: 0x116CA, offset: 0x116CA, size: 0x8, addend: 0x0, symName: __ZNSt3__16vectorIiNS_9allocatorIiEEE18__construct_at_endIPiLi0EEEvT_S6_m, symObjAddr: 0x4AE8, symBinAddr: 0x100005380, symSize: 0x8C }
  - { offsetInCU: 0x1173D, offset: 0x1173D, size: 0x8, addend: 0x0, symName: __ZNSt3__117__compressed_pairIPiNS_9allocatorIiEEEC2B7v160006IDnS3_EEOT_OT0_, symObjAddr: 0x4B74, symBinAddr: 0x10000540C, symSize: 0x44 }
  - { offsetInCU: 0x11795, offset: 0x11795, size: 0x8, addend: 0x0, symName: __ZNSt3__122__compressed_pair_elemINS_9allocatorIiEELi1ELb1EEC2B7v160006IS2_vEEOT_, symObjAddr: 0x4BB8, symBinAddr: 0x100005450, symSize: 0x18 }
  - { offsetInCU: 0x117D7, offset: 0x117D7, size: 0x8, addend: 0x0, symName: __ZNSt3__129_AllocatorDestroyRangeReverseINS_9allocatorIiEEPiEC1B7v160006ERS2_RS3_S6_, symObjAddr: 0x4D10, symBinAddr: 0x1000055A8, symSize: 0x44 }
  - { offsetInCU: 0x1182E, offset: 0x1182E, size: 0x8, addend: 0x0, symName: __ZNSt3__116allocator_traitsINS_9allocatorIiEEE9constructB7v160006IiJRiEvEEvRS2_PT_DpOT0_, symObjAddr: 0x4D54, symBinAddr: 0x1000055EC, symSize: 0x34 }
  - { offsetInCU: 0x11885, offset: 0x11885, size: 0x8, addend: 0x0, symName: __ZNSt3__128__exception_guard_exceptionsINS_29_AllocatorDestroyRangeReverseINS_9allocatorIiEEPiEEE10__completeB7v160006Ev, symObjAddr: 0x4D88, symBinAddr: 0x100005620, symSize: 0x1C }
  - { offsetInCU: 0x118AB, offset: 0x118AB, size: 0x8, addend: 0x0, symName: __ZNSt3__128__exception_guard_exceptionsINS_29_AllocatorDestroyRangeReverseINS_9allocatorIiEEPiEEED1B7v160006Ev, symObjAddr: 0x4DA4, symBinAddr: 0x10000563C, symSize: 0x2C }
  - { offsetInCU: 0x118D5, offset: 0x118D5, size: 0x8, addend: 0x0, symName: __ZNSt3__128__exception_guard_exceptionsINS_29_AllocatorDestroyRangeReverseINS_9allocatorIiEEPiEEEC1B7v160006ES5_, symObjAddr: 0x4DD0, symBinAddr: 0x100005668, symSize: 0x34 }
  - { offsetInCU: 0x1190E, offset: 0x1190E, size: 0x8, addend: 0x0, symName: __ZNSt3__128__exception_guard_exceptionsINS_29_AllocatorDestroyRangeReverseINS_9allocatorIiEEPiEEEC2B7v160006ES5_, symObjAddr: 0x4E04, symBinAddr: 0x10000569C, symSize: 0x30 }
  - { offsetInCU: 0x11947, offset: 0x11947, size: 0x8, addend: 0x0, symName: __ZNSt3__129_AllocatorDestroyRangeReverseINS_9allocatorIiEEPiEC2B7v160006ERS2_RS3_S6_, symObjAddr: 0x4E34, symBinAddr: 0x1000056CC, symSize: 0x38 }
  - { offsetInCU: 0x1199E, offset: 0x1199E, size: 0x8, addend: 0x0, symName: __ZNSt3__19allocatorIiE9constructB7v160006IiJRiEEEvPT_DpOT0_, symObjAddr: 0x4E6C, symBinAddr: 0x100005704, symSize: 0x28 }
  - { offsetInCU: 0x119F4, offset: 0x119F4, size: 0x8, addend: 0x0, symName: __ZNSt3__128__exception_guard_exceptionsINS_29_AllocatorDestroyRangeReverseINS_9allocatorIiEEPiEEED2B7v160006Ev, symObjAddr: 0x4E94, symBinAddr: 0x10000572C, symSize: 0x50 }
  - { offsetInCU: 0x11A1E, offset: 0x11A1E, size: 0x8, addend: 0x0, symName: __ZNKSt3__129_AllocatorDestroyRangeReverseINS_9allocatorIiEEPiEclB7v160006Ev, symObjAddr: 0x4EE4, symBinAddr: 0x10000577C, symSize: 0x68 }
  - { offsetInCU: 0x11A44, offset: 0x11A44, size: 0x8, addend: 0x0, symName: __ZNSt3__116reverse_iteratorIPiEC1B7v160006ES1_, symObjAddr: 0x4FBC, symBinAddr: 0x100005854, symSize: 0x34 }
  - { offsetInCU: 0x11A7C, offset: 0x11A7C, size: 0x8, addend: 0x0, symName: __ZNSt3__116reverse_iteratorIPiEppB7v160006Ev, symObjAddr: 0x505C, symBinAddr: 0x1000058F4, symSize: 0x20 }
  - { offsetInCU: 0x11AA2, offset: 0x11AA2, size: 0x8, addend: 0x0, symName: __ZNKSt3__116reverse_iteratorIPiE4baseB7v160006Ev, symObjAddr: 0x507C, symBinAddr: 0x100005914, symSize: 0x18 }
  - { offsetInCU: 0x11ACD, offset: 0x11ACD, size: 0x8, addend: 0x0, symName: __ZNSt3__119__to_address_helperINS_16reverse_iteratorIPiEEvE6__callB7v160006ERKS3_, symObjAddr: 0x5094, symBinAddr: 0x10000592C, symSize: 0x38 }
  - { offsetInCU: 0x11AF0, offset: 0x11AF0, size: 0x8, addend: 0x0, symName: __ZNKSt3__116reverse_iteratorIPiEptB7v160006Ev, symObjAddr: 0x50CC, symBinAddr: 0x100005964, symSize: 0x24 }
  - { offsetInCU: 0x11B16, offset: 0x11B16, size: 0x8, addend: 0x0, symName: __ZNKSt3__116reverse_iteratorIPiEdeB7v160006Ev, symObjAddr: 0x50F0, symBinAddr: 0x100005988, symSize: 0x28 }
  - { offsetInCU: 0x11B4A, offset: 0x11B4A, size: 0x8, addend: 0x0, symName: __ZNSt3__116reverse_iteratorIPiEC2B7v160006ES1_, symObjAddr: 0x5118, symBinAddr: 0x1000059B0, symSize: 0x28 }
  - { offsetInCU: 0x11B82, offset: 0x11B82, size: 0x8, addend: 0x0, symName: __ZNSt3__16vectorINS0_IiNS_9allocatorIiEEEENS1_IS3_EEE21_ConstructTransactionD2B7v160006Ev, symObjAddr: 0x5140, symBinAddr: 0x1000059D8, symSize: 0x20 }
  - { offsetInCU: 0x11BAC, offset: 0x11BAC, size: 0x8, addend: 0x0, symName: __ZNSt3__128__exception_guard_exceptionsINS_6vectorINS1_IiNS_9allocatorIiEEEENS2_IS4_EEE16__destroy_vectorEED2B7v160006Ev, symObjAddr: 0x5160, symBinAddr: 0x1000059F8, symSize: 0x50 }
  - { offsetInCU: 0x11BD6, offset: 0x11BD6, size: 0x8, addend: 0x0, symName: __ZNSt3__16vectorINS0_IiNS_9allocatorIiEEEENS1_IS3_EEE16__destroy_vectorclB7v160006Ev, symObjAddr: 0x51B0, symBinAddr: 0x100005A48, symSize: 0x9C }
  - { offsetInCU: 0x11BFC, offset: 0x11BFC, size: 0x8, addend: 0x0, symName: __ZNKSt3__16vectorINS0_IiNS_9allocatorIiEEEENS1_IS3_EEE17__annotate_deleteB7v160006Ev, symObjAddr: 0x524C, symBinAddr: 0x100005AE4, symSize: 0xD4 }
  - { offsetInCU: 0x11C22, offset: 0x11C22, size: 0x8, addend: 0x0, symName: __ZNSt3__16vectorINS0_IiNS_9allocatorIiEEEENS1_IS3_EEE7__clearB7v160006Ev, symObjAddr: 0x5330, symBinAddr: 0x100005BC8, symSize: 0x28 }
  - { offsetInCU: 0x11C48, offset: 0x11C48, size: 0x8, addend: 0x0, symName: __ZNSt3__116allocator_traitsINS_9allocatorINS_6vectorIiNS1_IiEEEEEEE10deallocateB7v160006ERS5_PS4_m, symObjAddr: 0x5358, symBinAddr: 0x100005BF0, symSize: 0x34 }
  - { offsetInCU: 0x11C8A, offset: 0x11C8A, size: 0x8, addend: 0x0, symName: __ZNKSt3__16vectorINS0_IiNS_9allocatorIiEEEENS1_IS3_EEE4sizeB7v160006Ev, symObjAddr: 0x538C, symBinAddr: 0x100005C24, symSize: 0x28 }
  - { offsetInCU: 0x11CB0, offset: 0x11CB0, size: 0x8, addend: 0x0, symName: __ZNSt3__16vectorINS0_IiNS_9allocatorIiEEEENS1_IS3_EEE22__base_destruct_at_endB7v160006EPS3_, symObjAddr: 0x53B4, symBinAddr: 0x100005C4C, symSize: 0x8C }
  - { offsetInCU: 0x11CF4, offset: 0x11CF4, size: 0x8, addend: 0x0, symName: __ZNSt3__116allocator_traitsINS_9allocatorINS_6vectorIiNS1_IiEEEEEEE7destroyB7v160006IS4_vEEvRS5_PT_, symObjAddr: 0x5440, symBinAddr: 0x100005CD8, symSize: 0x2C }
  - { offsetInCU: 0x11D31, offset: 0x11D31, size: 0x8, addend: 0x0, symName: __ZNSt3__19allocatorINS_6vectorIiNS0_IiEEEEE7destroyB7v160006EPS3_, symObjAddr: 0x546C, symBinAddr: 0x100005D04, symSize: 0x28 }
  - { offsetInCU: 0x11D65, offset: 0x11D65, size: 0x8, addend: 0x0, symName: __ZNSt3__19allocatorINS_6vectorIiNS0_IiEEEEE10deallocateB7v160006EPS3_m, symObjAddr: 0x5494, symBinAddr: 0x100005D2C, symSize: 0x44 }
  - { offsetInCU: 0x11DA7, offset: 0x11DA7, size: 0x8, addend: 0x0, symName: __ZNSt3__16vectorIiNS_9allocatorIiEEED2B7v160006Ev, symObjAddr: 0x54D8, symBinAddr: 0x100005D70, symSize: 0x44 }
  - { offsetInCU: 0x11DEA, offset: 0x11DEA, size: 0x8, addend: 0x0, symName: __ZNSt3__113random_deviceC1Ev, symObjAddr: 0x551C, symBinAddr: 0x100005DB4, symSize: 0x74 }
  - { offsetInCU: 0x11E14, offset: 0x11E14, size: 0x8, addend: 0x0, symName: __ZNSt3__123mersenne_twister_engineIjLm32ELm624ELm397ELm31ELj2567483615ELm11ELj4294967295ELm7ELj2636928640ELm15ELj4022730752ELm18ELj1812433253EEC1B7v160006Ej, symObjAddr: 0x5590, symBinAddr: 0x100005E28, symSize: 0x34 }
  - { offsetInCU: 0x11E6F, offset: 0x11E6F, size: 0x8, addend: 0x0, symName: __ZNSt3__125uniform_real_distributionIdEC1Edd, symObjAddr: 0x55C4, symBinAddr: 0x100005E5C, symSize: 0x3C }
  - { offsetInCU: 0x11EBA, offset: 0x11EBA, size: 0x8, addend: 0x0, symName: __ZNSt3__125uniform_real_distributionIdEclB7v160006INS_23mersenne_twister_engineIjLm32ELm624ELm397ELm31ELj2567483615ELm11ELj4294967295ELm7ELj2636928640ELm15ELj4022730752ELm18ELj1812433253EEEEEdRT_, symObjAddr: 0x5600, symBinAddr: 0x100005E98, symSize: 0x30 }
  - { offsetInCU: 0x11EF7, offset: 0x11EF7, size: 0x8, addend: 0x0, symName: __ZNSt3__16vectorINS0_IiNS_9allocatorIiEEEENS1_IS3_EEEixB7v160006Em, symObjAddr: 0x5630, symBinAddr: 0x100005EC8, symSize: 0x2C }
  - { offsetInCU: 0x11F2E, offset: 0x11F2E, size: 0x8, addend: 0x0, symName: __ZNSt3__16vectorIiNS_9allocatorIiEEEixB7v160006Em, symObjAddr: 0x565C, symBinAddr: 0x100005EF4, symSize: 0x24 }
  - { offsetInCU: 0x11F6A, offset: 0x11F6A, size: 0x8, addend: 0x0, symName: __ZNSt3__112basic_stringIcNS_11char_traitsIcEENS_9allocatorIcEEEC1B7v160006IDnEEPKc, symObjAddr: 0x5680, symBinAddr: 0x100005F18, symSize: 0x34 }
  - { offsetInCU: 0x11FA8, offset: 0x11FA8, size: 0x8, addend: 0x0, symName: __ZNSt3__112basic_stringIcNS_11char_traitsIcEENS_9allocatorIcEEEC2B7v160006IDnEEPKc, symObjAddr: 0x56B4, symBinAddr: 0x100005F4C, symSize: 0x60 }
  - { offsetInCU: 0x11FE6, offset: 0x11FE6, size: 0x8, addend: 0x0, symName: __ZNSt3__117__compressed_pairINS_12basic_stringIcNS_11char_traitsIcEENS_9allocatorIcEEE5__repES5_EC1B7v160006INS_18__default_init_tagESA_EEOT_OT0_, symObjAddr: 0x5714, symBinAddr: 0x100005FAC, symSize: 0x3C }
  - { offsetInCU: 0x1203E, offset: 0x1203E, size: 0x8, addend: 0x0, symName: __ZNSt3__111char_traitsIcE6lengthEPKc, symObjAddr: 0x5750, symBinAddr: 0x100005FE8, symSize: 0x34 }
  - { offsetInCU: 0x12061, offset: 0x12061, size: 0x8, addend: 0x0, symName: __ZNSt3__117__compressed_pairINS_12basic_stringIcNS_11char_traitsIcEENS_9allocatorIcEEE5__repES5_EC2B7v160006INS_18__default_init_tagESA_EEOT_OT0_, symObjAddr: 0x5794, symBinAddr: 0x10000602C, symSize: 0x3C }
  - { offsetInCU: 0x120B9, offset: 0x120B9, size: 0x8, addend: 0x0, symName: __ZNSt3__122__compressed_pair_elemINS_12basic_stringIcNS_11char_traitsIcEENS_9allocatorIcEEE5__repELi0ELb0EEC2B7v160006ENS_18__default_init_tagE, symObjAddr: 0x57D0, symBinAddr: 0x100006068, symSize: 0x14 }
  - { offsetInCU: 0x120EE, offset: 0x120EE, size: 0x8, addend: 0x0, symName: __ZNSt3__122__compressed_pair_elemINS_9allocatorIcEELi1ELb1EEC2B7v160006ENS_18__default_init_tagE, symObjAddr: 0x57E4, symBinAddr: 0x10000607C, symSize: 0x2C }
  - { offsetInCU: 0x12123, offset: 0x12123, size: 0x8, addend: 0x0, symName: __ZNSt3__19allocatorIcEC2B7v160006Ev, symObjAddr: 0x5810, symBinAddr: 0x1000060A8, symSize: 0x2C }
  - { offsetInCU: 0x1214D, offset: 0x1214D, size: 0x8, addend: 0x0, symName: __ZNSt3__116__non_trivial_ifILb1ENS_9allocatorIcEEEC2B7v160006Ev, symObjAddr: 0x583C, symBinAddr: 0x1000060D4, symSize: 0x14 }
  - { offsetInCU: 0x12177, offset: 0x12177, size: 0x8, addend: 0x0, symName: __ZNSt3__123mersenne_twister_engineIjLm32ELm624ELm397ELm31ELj2567483615ELm11ELj4294967295ELm7ELj2636928640ELm15ELj4022730752ELm18ELj1812433253EEC2B7v160006Ej, symObjAddr: 0x5874, symBinAddr: 0x10000610C, symSize: 0x34 }
  - { offsetInCU: 0x121AF, offset: 0x121AF, size: 0x8, addend: 0x0, symName: __ZNSt3__123mersenne_twister_engineIjLm32ELm624ELm397ELm31ELj2567483615ELm11ELj4294967295ELm7ELj2636928640ELm15ELj4022730752ELm18ELj1812433253EE4seedEj, symObjAddr: 0x58A8, symBinAddr: 0x100006140, symSize: 0xC4 }
  - { offsetInCU: 0x12202, offset: 0x12202, size: 0x8, addend: 0x0, symName: __ZNSt3__123mersenne_twister_engineIjLm32ELm624ELm397ELm31ELj2567483615ELm11ELj4294967295ELm7ELj2636928640ELm15ELj4022730752ELm18ELj1812433253EE8__rshiftB7v160006ILm30EEENS_9enable_ifIXltT_L_ZNS1_3_DtEEEjE4typeEj, symObjAddr: 0x596C, symBinAddr: 0x100006204, symSize: 0x18 }
  - { offsetInCU: 0x1222F, offset: 0x1222F, size: 0x8, addend: 0x0, symName: __ZNSt3__125uniform_real_distributionIdEC2Edd, symObjAddr: 0x5984, symBinAddr: 0x10000621C, symSize: 0x3C }
  - { offsetInCU: 0x12275, offset: 0x12275, size: 0x8, addend: 0x0, symName: __ZNSt3__125uniform_real_distributionIdE10param_typeC1B7v160006Edd, symObjAddr: 0x59C0, symBinAddr: 0x100006258, symSize: 0x3C }
  - { offsetInCU: 0x122BB, offset: 0x122BB, size: 0x8, addend: 0x0, symName: __ZNSt3__125uniform_real_distributionIdE10param_typeC2B7v160006Edd, symObjAddr: 0x59FC, symBinAddr: 0x100006294, symSize: 0x2C }
  - { offsetInCU: 0x12301, offset: 0x12301, size: 0x8, addend: 0x0, symName: __ZNSt3__125uniform_real_distributionIdEclINS_23mersenne_twister_engineIjLm32ELm624ELm397ELm31ELj2567483615ELm11ELj4294967295ELm7ELj2636928640ELm15ELj4022730752ELm18ELj1812433253EEEEEdRT_RKNS1_10param_typeE, symObjAddr: 0x5A28, symBinAddr: 0x1000062C0, symSize: 0x6C }
  - { offsetInCU: 0x1234D, offset: 0x1234D, size: 0x8, addend: 0x0, symName: __ZNKSt3__125uniform_real_distributionIdE10param_type1bB7v160006Ev, symObjAddr: 0x5A94, symBinAddr: 0x10000632C, symSize: 0x18 }
  - { offsetInCU: 0x12373, offset: 0x12373, size: 0x8, addend: 0x0, symName: __ZNKSt3__125uniform_real_distributionIdE10param_type1aB7v160006Ev, symObjAddr: 0x5AAC, symBinAddr: 0x100006344, symSize: 0x18 }
  - { offsetInCU: 0x12399, offset: 0x12399, size: 0x8, addend: 0x0, symName: __ZNSt3__123mersenne_twister_engineIjLm32ELm624ELm397ELm31ELj2567483615ELm11ELj4294967295ELm7ELj2636928640ELm15ELj4022730752ELm18ELj1812433253EE3maxB7v160006Ev, symObjAddr: 0x5BD8, symBinAddr: 0x100006470, symSize: 0x8 }
  - { offsetInCU: 0x123AD, offset: 0x123AD, size: 0x8, addend: 0x0, symName: __ZNSt3__123mersenne_twister_engineIjLm32ELm624ELm397ELm31ELj2567483615ELm11ELj4294967295ELm7ELj2636928640ELm15ELj4022730752ELm18ELj1812433253EE3minB7v160006Ev, symObjAddr: 0x5BE0, symBinAddr: 0x100006478, symSize: 0x8 }
  - { offsetInCU: 0x123C1, offset: 0x123C1, size: 0x8, addend: 0x0, symName: __ZNSt3__123mersenne_twister_engineIjLm32ELm624ELm397ELm31ELj2567483615ELm11ELj4294967295ELm7ELj2636928640ELm15ELj4022730752ELm18ELj1812433253EEclEv, symObjAddr: 0x5BE8, symBinAddr: 0x100006480, symSize: 0x14C }
  - { offsetInCU: 0x12434, offset: 0x12434, size: 0x8, addend: 0x0, symName: __ZNSt3__123mersenne_twister_engineIjLm32ELm624ELm397ELm31ELj2567483615ELm11ELj4294967295ELm7ELj2636928640ELm15ELj4022730752ELm18ELj1812433253EE8__rshiftB7v160006ILm1EEENS_9enable_ifIXltT_L_ZNS1_3_DtEEEjE4typeEj, symObjAddr: 0x5D34, symBinAddr: 0x1000065CC, symSize: 0x18 }
  - { offsetInCU: 0x12461, offset: 0x12461, size: 0x8, addend: 0x0, symName: __ZNSt3__123mersenne_twister_engineIjLm32ELm624ELm397ELm31ELj2567483615ELm11ELj4294967295ELm7ELj2636928640ELm15ELj4022730752ELm18ELj1812433253EE8__rshiftB7v160006ILm11EEENS_9enable_ifIXltT_L_ZNS1_3_DtEEEjE4typeEj, symObjAddr: 0x5D4C, symBinAddr: 0x1000065E4, symSize: 0x18 }
  - { offsetInCU: 0x1248E, offset: 0x1248E, size: 0x8, addend: 0x0, symName: __ZNSt3__123mersenne_twister_engineIjLm32ELm624ELm397ELm31ELj2567483615ELm11ELj4294967295ELm7ELj2636928640ELm15ELj4022730752ELm18ELj1812433253EE8__lshiftB7v160006ILm7EEENS_9enable_ifIXltT_Lm32EEjE4typeEj, symObjAddr: 0x5D64, symBinAddr: 0x1000065FC, symSize: 0x1C }
  - { offsetInCU: 0x124BB, offset: 0x124BB, size: 0x8, addend: 0x0, symName: __ZNSt3__123mersenne_twister_engineIjLm32ELm624ELm397ELm31ELj2567483615ELm11ELj4294967295ELm7ELj2636928640ELm15ELj4022730752ELm18ELj1812433253EE8__lshiftB7v160006ILm15EEENS_9enable_ifIXltT_Lm32EEjE4typeEj, symObjAddr: 0x5D80, symBinAddr: 0x100006618, symSize: 0x1C }
  - { offsetInCU: 0x124E8, offset: 0x124E8, size: 0x8, addend: 0x0, symName: __ZNSt3__123mersenne_twister_engineIjLm32ELm624ELm397ELm31ELj2567483615ELm11ELj4294967295ELm7ELj2636928640ELm15ELj4022730752ELm18ELj1812433253EE8__rshiftB7v160006ILm18EEENS_9enable_ifIXltT_L_ZNS1_3_DtEEEjE4typeEj, symObjAddr: 0x5D9C, symBinAddr: 0x100006634, symSize: 0x18 }
  - { offsetInCU: 0x12515, offset: 0x12515, size: 0x8, addend: 0x0, symName: __ZNSt3__16vectorINS0_IiNS_9allocatorIiEEEENS1_IS3_EEED2B7v160006Ev, symObjAddr: 0x5DB4, symBinAddr: 0x10000664C, symSize: 0x44 }
  - { offsetInCU: 0x1253F, offset: 0x1253F, size: 0x8, addend: 0x0, symName: __ZNSt3__16vectorINS0_IN11Minesweeper4CellENS_9allocatorIS2_EEEENS3_IS5_EEED2B7v160006Ev, symObjAddr: 0x5DF8, symBinAddr: 0x100006690, symSize: 0x44 }
  - { offsetInCU: 0x12569, offset: 0x12569, size: 0x8, addend: 0x0, symName: __ZNKSt3__16vectorINS0_IN11Minesweeper4CellENS_9allocatorIS2_EEEENS3_IS5_EEEixB7v160006Em, symObjAddr: 0x5E3C, symBinAddr: 0x1000066D4, symSize: 0x2C }
  - { offsetInCU: 0x125A0, offset: 0x125A0, size: 0x8, addend: 0x0, symName: __ZNKSt3__16vectorIN11Minesweeper4CellENS_9allocatorIS2_EEEixB7v160006Em, symObjAddr: 0x5E68, symBinAddr: 0x100006700, symSize: 0x24 }
  - { offsetInCU: 0x125D7, offset: 0x125D7, size: 0x8, addend: 0x0, symName: __ZNKSt3__16vectorINS0_IiNS_9allocatorIiEEEENS1_IS3_EEEixB7v160006Em, symObjAddr: 0x5E8C, symBinAddr: 0x100006724, symSize: 0x2C }
  - { offsetInCU: 0x1260E, offset: 0x1260E, size: 0x8, addend: 0x0, symName: __ZNKSt3__16vectorIiNS_9allocatorIiEEEixB7v160006Em, symObjAddr: 0x5EB8, symBinAddr: 0x100006750, symSize: 0x24 }
  - { offsetInCU: 0x12645, offset: 0x12645, size: 0x8, addend: 0x0, symName: __ZNSt3__16vectorINS0_IN11Minesweeper4CellENS_9allocatorIS2_EEEENS3_IS5_EEEixB7v160006Em, symObjAddr: 0x5EDC, symBinAddr: 0x100006774, symSize: 0x2C }
  - { offsetInCU: 0x1267C, offset: 0x1267C, size: 0x8, addend: 0x0, symName: __ZNSt3__16vectorIN11Minesweeper4CellENS_9allocatorIS2_EEEixB7v160006Em, symObjAddr: 0x5F08, symBinAddr: 0x1000067A0, symSize: 0x24 }
  - { offsetInCU: 0x126B3, offset: 0x126B3, size: 0x8, addend: 0x0, symName: __ZN11MinesweeperD2Ev, symObjAddr: 0x5F2C, symBinAddr: 0x1000067C4, symSize: 0x3C }
  - { offsetInCU: 0x126FD, offset: 0x126FD, size: 0x8, addend: 0x0, symName: __ZNKSt3__113basic_ostreamIcNS_11char_traitsIcEEE6sentrycvbB7v160006Ev, symObjAddr: 0x6154, symBinAddr: 0x1000069EC, symSize: 0x1C }
  - { offsetInCU: 0x12723, offset: 0x12723, size: 0x8, addend: 0x0, symName: __ZNSt3__119ostreambuf_iteratorIcNS_11char_traitsIcEEEC1B7v160006ERNS_13basic_ostreamIcS2_EE, symObjAddr: 0x63B0, symBinAddr: 0x100006C48, symSize: 0x34 }
  - { offsetInCU: 0x1275B, offset: 0x1275B, size: 0x8, addend: 0x0, symName: __ZNKSt3__18ios_base5flagsB7v160006Ev, symObjAddr: 0x63E4, symBinAddr: 0x100006C7C, symSize: 0x18 }
  - { offsetInCU: 0x12783, offset: 0x12783, size: 0x8, addend: 0x0, symName: __ZNKSt3__19basic_iosIcNS_11char_traitsIcEEE4fillB7v160006Ev, symObjAddr: 0x63FC, symBinAddr: 0x100006C94, symSize: 0x64 }
  - { offsetInCU: 0x127AB, offset: 0x127AB, size: 0x8, addend: 0x0, symName: __ZNKSt3__119ostreambuf_iteratorIcNS_11char_traitsIcEEE6failedB7v160006Ev, symObjAddr: 0x6460, symBinAddr: 0x100006CF8, symSize: 0x24 }
  - { offsetInCU: 0x127D1, offset: 0x127D1, size: 0x8, addend: 0x0, symName: __ZNSt3__19basic_iosIcNS_11char_traitsIcEEE8setstateB7v160006Ej, symObjAddr: 0x6484, symBinAddr: 0x100006D1C, symSize: 0x2C }
  - { offsetInCU: 0x12806, offset: 0x12806, size: 0x8, addend: 0x0, symName: __ZNKSt3__18ios_base5widthB7v160006Ev, symObjAddr: 0x64B0, symBinAddr: 0x100006D48, symSize: 0x18 }
  - { offsetInCU: 0x1282E, offset: 0x1282E, size: 0x8, addend: 0x0, symName: __ZNSt3__115basic_streambufIcNS_11char_traitsIcEEE5sputnB7v160006EPKcl, symObjAddr: 0x64C8, symBinAddr: 0x100006D60, symSize: 0x3C }
  - { offsetInCU: 0x12870, offset: 0x12870, size: 0x8, addend: 0x0, symName: __ZNSt3__112basic_stringIcNS_11char_traitsIcEENS_9allocatorIcEEEC1B7v160006Emc, symObjAddr: 0x6504, symBinAddr: 0x100006D9C, symSize: 0x3C }
  - { offsetInCU: 0x128B8, offset: 0x128B8, size: 0x8, addend: 0x0, symName: __ZNKSt3__112basic_stringIcNS_11char_traitsIcEENS_9allocatorIcEEE4dataB7v160006Ev, symObjAddr: 0x6540, symBinAddr: 0x100006DD8, symSize: 0x28 }
  - { offsetInCU: 0x128DE, offset: 0x128DE, size: 0x8, addend: 0x0, symName: __ZNSt3__18ios_base5widthB7v160006El, symObjAddr: 0x6568, symBinAddr: 0x100006E00, symSize: 0x2C }
  - { offsetInCU: 0x12924, offset: 0x12924, size: 0x8, addend: 0x0, symName: __ZNSt3__112basic_stringIcNS_11char_traitsIcEENS_9allocatorIcEEEC2B7v160006Emc, symObjAddr: 0x6594, symBinAddr: 0x100006E2C, symSize: 0x54 }
  - { offsetInCU: 0x1296C, offset: 0x1296C, size: 0x8, addend: 0x0, symName: __ZNKSt3__112basic_stringIcNS_11char_traitsIcEENS_9allocatorIcEEE13__get_pointerB7v160006Ev, symObjAddr: 0x65FC, symBinAddr: 0x100006E94, symSize: 0x54 }
  - { offsetInCU: 0x12992, offset: 0x12992, size: 0x8, addend: 0x0, symName: __ZNKSt3__112basic_stringIcNS_11char_traitsIcEENS_9allocatorIcEEE9__is_longB7v160006Ev, symObjAddr: 0x6650, symBinAddr: 0x100006EE8, symSize: 0x38 }
  - { offsetInCU: 0x129B8, offset: 0x129B8, size: 0x8, addend: 0x0, symName: __ZNKSt3__112basic_stringIcNS_11char_traitsIcEENS_9allocatorIcEEE18__get_long_pointerB7v160006Ev, symObjAddr: 0x6688, symBinAddr: 0x100006F20, symSize: 0x28 }
  - { offsetInCU: 0x129DE, offset: 0x129DE, size: 0x8, addend: 0x0, symName: __ZNKSt3__112basic_stringIcNS_11char_traitsIcEENS_9allocatorIcEEE19__get_short_pointerB7v160006Ev, symObjAddr: 0x66B0, symBinAddr: 0x100006F48, symSize: 0x28 }
  - { offsetInCU: 0x12A04, offset: 0x12A04, size: 0x8, addend: 0x0, symName: __ZNKSt3__117__compressed_pairINS_12basic_stringIcNS_11char_traitsIcEENS_9allocatorIcEEE5__repES5_E5firstB7v160006Ev, symObjAddr: 0x66D8, symBinAddr: 0x100006F70, symSize: 0x24 }
  - { offsetInCU: 0x12A2A, offset: 0x12A2A, size: 0x8, addend: 0x0, symName: __ZNKSt3__122__compressed_pair_elemINS_12basic_stringIcNS_11char_traitsIcEENS_9allocatorIcEEE5__repELi0ELb0EE5__getB7v160006Ev, symObjAddr: 0x66FC, symBinAddr: 0x100006F94, symSize: 0x14 }
  - { offsetInCU: 0x12A50, offset: 0x12A50, size: 0x8, addend: 0x0, symName: __ZNSt3__114pointer_traitsIPKcE10pointer_toB7v160006ERS1_, symObjAddr: 0x6710, symBinAddr: 0x100006FA8, symSize: 0x14 }
  - { offsetInCU: 0x12A73, offset: 0x12A73, size: 0x8, addend: 0x0, symName: __ZNSt3__119ostreambuf_iteratorIcNS_11char_traitsIcEEEC2B7v160006ERNS_13basic_ostreamIcS2_EE, symObjAddr: 0x6724, symBinAddr: 0x100006FBC, symSize: 0x54 }
  - { offsetInCU: 0x12AAB, offset: 0x12AAB, size: 0x8, addend: 0x0, symName: __ZNKSt3__19basic_iosIcNS_11char_traitsIcEEE5rdbufB7v160006Ev, symObjAddr: 0x6778, symBinAddr: 0x100007010, symSize: 0x24 }
  - { offsetInCU: 0x12AD3, offset: 0x12AD3, size: 0x8, addend: 0x0, symName: __ZNKSt3__18ios_base5rdbufB7v160006Ev, symObjAddr: 0x679C, symBinAddr: 0x100007034, symSize: 0x18 }
  - { offsetInCU: 0x12AF9, offset: 0x12AF9, size: 0x8, addend: 0x0, symName: __ZNSt3__111char_traitsIcE11eq_int_typeEii, symObjAddr: 0x67B4, symBinAddr: 0x10000704C, symSize: 0x28 }
  - { offsetInCU: 0x12B2A, offset: 0x12B2A, size: 0x8, addend: 0x0, symName: __ZNSt3__111char_traitsIcE3eofEv, symObjAddr: 0x67DC, symBinAddr: 0x100007074, symSize: 0x8 }
  - { offsetInCU: 0x12B3E, offset: 0x12B3E, size: 0x8, addend: 0x0, symName: __ZNKSt3__19basic_iosIcNS_11char_traitsIcEEE5widenB7v160006Ec, symObjAddr: 0x67E4, symBinAddr: 0x10000707C, symSize: 0x84 }
  - { offsetInCU: 0x12BA7, offset: 0x12BA7, size: 0x8, addend: 0x0, symName: __ZNKSt3__15ctypeIcE5widenB7v160006Ec, symObjAddr: 0x6894, symBinAddr: 0x10000712C, symSize: 0x38 }
  - { offsetInCU: 0x12BDC, offset: 0x12BDC, size: 0x8, addend: 0x0, symName: __ZNSt3__18ios_base8setstateB7v160006Ej, symObjAddr: 0x68CC, symBinAddr: 0x100007164, symSize: 0x34 }
...
